ARM GAS  C:\Users\karam\AppData\Local\Temp\cclRBQQI.s 			page 1


   1              		.syntax unified
   2              		.cpu cortex-m3
   3              		.fpu softvfp
   4              		.eabi_attribute 20, 1
   5              		.eabi_attribute 21, 1
   6              		.eabi_attribute 23, 3
   7              		.eabi_attribute 24, 1
   8              		.eabi_attribute 25, 1
   9              		.eabi_attribute 26, 1
  10              		.eabi_attribute 30, 1
  11              		.eabi_attribute 34, 1
  12              		.eabi_attribute 18, 4
  13              		.thumb
  14              		.syntax unified
  15              		.file	"main.c"
  16              		.text
  17              	.Ltext0:
  18              		.cfi_sections	.debug_frame
  19              		.section	.text.uart_rx_Handler,"ax",%progbits
  20              		.align	2
  21              		.global	uart_rx_Handler
  22              		.thumb
  23              		.thumb_func
  24              		.type	uart_rx_Handler, %function
  25              	uart_rx_Handler:
  26              	.LFB72:
  27              		.file 1 "main.c"
   1:main.c        **** /* ========================================
   2:main.c        ****  *
   3:main.c        ****  * Copyright YOUR COMPANY, THE YEAR
   4:main.c        ****  * All Rights Reserved
   5:main.c        ****  * UNPUBLISHED, LICENSED SOFTWARE.
   6:main.c        ****  *
   7:main.c        ****  * CONFIDENTIAL AND PROPRIETARY INFORMATION
   8:main.c        ****  * WHICH IS THE PROPERTY OF your company.
   9:main.c        ****  *
  10:main.c        ****  * ========================================
  11:main.c        **** */
  12:main.c        **** #include "project.h"
  13:main.c        **** #include "cyapicallbacks.h"
  14:main.c        **** #include "keypad.h"
  15:main.c        **** #include "math.h"
  16:main.c        **** 
  17:main.c        **** int count=0;
  18:main.c        **** int countTimesw2=0;
  19:main.c        **** int countTimesw3=0;
  20:main.c        **** int countTime=0;
  21:main.c        **** int ti=10000;
  22:main.c        **** int taah=30000;
  23:main.c        **** float vec[100];
  24:main.c        **** _Bool mode;
  25:main.c        **** _Bool light;
  26:main.c        **** _Bool begin=1;
  27:main.c        **** _Bool rxbegin=0, rxend=0, flag=0;
  28:main.c        **** char *mot;
  29:main.c        **** char formmot[8];
  30:main.c        **** int morsecode[4]={0,0,0,0};
ARM GAS  C:\Users\karam\AppData\Local\Temp\cclRBQQI.s 			page 2


  31:main.c        **** int morseint=0, k=0;
  32:main.c        **** int morsetottimespace=0;
  33:main.c        **** uint8 rxData;
  34:main.c        **** char8 rxData_char;
  35:main.c        **** struct pair{
  36:main.c        ****     char let;
  37:main.c        ****     double num;
  38:main.c        ****     double num1;
  39:main.c        **** };
  40:main.c        **** struct pair semaphore_alphabet[26] = {{'a',0,0},
  41:main.c        ****   {'b',0,45},
  42:main.c        ****   {'c',0,90},
  43:main.c        ****   {'d',0,135},
  44:main.c        ****   {'e',0,180},
  45:main.c        ****   {'f',45,0},
  46:main.c        ****   {'g',45,45},
  47:main.c        ****   {'h',45,90},
  48:main.c        ****   {'i',45,135},
  49:main.c        ****   {'j',45,180},
  50:main.c        ****   {'k',90,0},
  51:main.c        ****   {'l',90,45},
  52:main.c        ****   {'m',90,90},
  53:main.c        ****   {'n',90,135},
  54:main.c        ****   {'o',90,180},
  55:main.c        ****   {'p',135,0},
  56:main.c        ****   {'q',135,45},
  57:main.c        ****   {'r',135,90},
  58:main.c        ****   {'s',135,135},
  59:main.c        ****   {'t',135,180},
  60:main.c        ****   {'u',180,0},
  61:main.c        ****   {'v',180,45},
  62:main.c        ****   {'w',180,90},
  63:main.c        ****   {'x',180,135},
  64:main.c        ****   {'y',180,180},
  65:main.c        ****   {'z',158,158}};
  66:main.c        **** 
  67:main.c        **** void pinsWrite(int value){
  68:main.c        ****     if (light){
  69:main.c        ****         value=0;
  70:main.c        ****     }
  71:main.c        ****     Pin_1_Write(value);
  72:main.c        ****     Pin_2_Write(value);
  73:main.c        ****     Pin_3_Write(value);
  74:main.c        ****     Pin_4_Write(value);
  75:main.c        **** }
  76:main.c        **** 
  77:main.c        **** void soundPlay(){
  78:main.c        ****     if (count==99){
  79:main.c        ****         count=0;
  80:main.c        ****     }
  81:main.c        ****     Timer_ReadStatusRegister();
  82:main.c        ****     VDAC8_1_SetValue(vec[count]*128);
  83:main.c        ****     count++;
  84:main.c        **** }
  85:main.c        **** 
  86:main.c        **** void morse(char letter){
  87:main.c        ****     morsecode[0]=0;
ARM GAS  C:\Users\karam\AppData\Local\Temp\cclRBQQI.s 			page 3


  88:main.c        ****     morsecode[1]=0;
  89:main.c        ****     morsecode[2]=0;
  90:main.c        ****     morsecode[3]=0;
  91:main.c        ****     if(letter=='a'){
  92:main.c        ****         morsecode[0]=ti;
  93:main.c        ****         morsecode[1]=taah;
  94:main.c        ****     }
  95:main.c        ****     else if(letter=='b'){
  96:main.c        ****         morsecode[0]=taah;
  97:main.c        ****         morsecode[1]=ti;
  98:main.c        ****         morsecode[2]=ti;
  99:main.c        ****         morsecode[3]=ti;
 100:main.c        ****     }
 101:main.c        ****     else if(letter=='c'){
 102:main.c        ****         morsecode[0]=taah;
 103:main.c        ****         morsecode[1]=ti;
 104:main.c        ****         morsecode[2]=taah;
 105:main.c        ****         morsecode[3]=ti;
 106:main.c        ****     }
 107:main.c        ****     else if(letter=='d'){
 108:main.c        ****         morsecode[0]=taah;
 109:main.c        ****         morsecode[1]=ti;
 110:main.c        ****         morsecode[2]=ti;
 111:main.c        ****     }
 112:main.c        ****     else if(letter=='e'){
 113:main.c        ****         morsecode[0]=ti;
 114:main.c        ****     }
 115:main.c        ****     else if(letter=='f'){
 116:main.c        ****         morsecode[0]=ti;
 117:main.c        ****         morsecode[1]=ti;
 118:main.c        ****         morsecode[2]=taah;
 119:main.c        ****         morsecode[3]=ti;
 120:main.c        ****     }
 121:main.c        ****     else if(letter=='g'){
 122:main.c        ****         morsecode[0]=taah;
 123:main.c        ****         morsecode[1]=taah;
 124:main.c        ****         morsecode[2]=ti;
 125:main.c        ****     }
 126:main.c        ****     else if(letter=='h'){
 127:main.c        ****         morsecode[0]=ti;
 128:main.c        ****         morsecode[1]=ti;
 129:main.c        ****         morsecode[2]=ti;
 130:main.c        ****         morsecode[3]=ti;
 131:main.c        ****     }
 132:main.c        ****     else if(letter=='i'){
 133:main.c        ****         morsecode[0]=ti;
 134:main.c        ****         morsecode[1]=ti;
 135:main.c        ****     }
 136:main.c        ****     else if(letter=='j'){
 137:main.c        ****         morsecode[0]=ti;
 138:main.c        ****         morsecode[1]=taah;
 139:main.c        ****         morsecode[2]=taah;
 140:main.c        ****         morsecode[3]=taah;
 141:main.c        ****     }
 142:main.c        ****     else if(letter=='k'){
 143:main.c        ****         morsecode[0]=taah;
 144:main.c        ****         morsecode[1]=ti;
ARM GAS  C:\Users\karam\AppData\Local\Temp\cclRBQQI.s 			page 4


 145:main.c        ****         morsecode[2]=taah;
 146:main.c        ****     }
 147:main.c        ****     else if(letter=='l'){
 148:main.c        ****         morsecode[0]=ti;
 149:main.c        ****         morsecode[1]=taah;
 150:main.c        ****         morsecode[2]=ti;
 151:main.c        ****         morsecode[3]=ti;
 152:main.c        ****     }
 153:main.c        ****     else if(letter=='m'){
 154:main.c        ****         morsecode[0]=taah;
 155:main.c        ****         morsecode[1]=taah;
 156:main.c        ****     }
 157:main.c        ****     else if(letter=='n'){
 158:main.c        ****         morsecode[0]=taah;
 159:main.c        ****         morsecode[1]=ti;
 160:main.c        ****     }
 161:main.c        ****     else if(letter=='o'){
 162:main.c        ****         morsecode[0]=taah;
 163:main.c        ****         morsecode[1]=taah;
 164:main.c        ****         morsecode[2]=taah;
 165:main.c        ****     }
 166:main.c        ****     else if(letter=='p'){
 167:main.c        ****         morsecode[0]=ti;
 168:main.c        ****         morsecode[1]=taah;
 169:main.c        ****         morsecode[2]=taah;
 170:main.c        ****         morsecode[3]=ti;
 171:main.c        ****     }
 172:main.c        ****     else if(letter=='q'){
 173:main.c        ****         morsecode[0]=taah;
 174:main.c        ****         morsecode[1]=taah;
 175:main.c        ****         morsecode[2]=ti;
 176:main.c        ****         morsecode[3]=taah;
 177:main.c        ****     }
 178:main.c        ****     else if(letter=='r'){
 179:main.c        ****         morsecode[0]=ti;
 180:main.c        ****         morsecode[1]=taah;
 181:main.c        ****         morsecode[2]=ti;
 182:main.c        ****     }
 183:main.c        ****     else if(letter=='s'){
 184:main.c        ****         morsecode[0]=ti;
 185:main.c        ****         morsecode[1]=ti;
 186:main.c        ****         morsecode[2]=ti;
 187:main.c        ****     }
 188:main.c        ****     else if(letter=='t'){
 189:main.c        ****         morsecode[0]=taah;
 190:main.c        ****     }
 191:main.c        ****     else if(letter=='u'){
 192:main.c        ****         morsecode[0]=ti;
 193:main.c        ****         morsecode[1]=ti;
 194:main.c        ****         morsecode[2]=taah;
 195:main.c        ****     }
 196:main.c        ****     else if(letter=='v'){
 197:main.c        ****         morsecode[0]=ti;
 198:main.c        ****         morsecode[1]=ti;
 199:main.c        ****         morsecode[2]=ti;
 200:main.c        ****         morsecode[3]=taah;
 201:main.c        ****     }
ARM GAS  C:\Users\karam\AppData\Local\Temp\cclRBQQI.s 			page 5


 202:main.c        ****     else if(letter=='w'){
 203:main.c        ****         morsecode[0]=ti;
 204:main.c        ****         morsecode[1]=taah;
 205:main.c        ****         morsecode[2]=taah;
 206:main.c        ****     }
 207:main.c        ****     else if(letter=='x'){
 208:main.c        ****         morsecode[0]=taah;
 209:main.c        ****         morsecode[1]=ti;
 210:main.c        ****         morsecode[2]=ti;
 211:main.c        ****         morsecode[3]=taah;
 212:main.c        ****     }
 213:main.c        ****     else if(letter=='y'){
 214:main.c        ****         morsecode[0]=taah;
 215:main.c        ****         morsecode[1]=ti;
 216:main.c        ****         morsecode[2]=taah;
 217:main.c        ****         morsecode[3]=taah;
 218:main.c        ****     }
 219:main.c        ****     else if(letter=='z'){
 220:main.c        ****         morsecode[0]=taah;
 221:main.c        ****         morsecode[1]=taah;
 222:main.c        ****         morsecode[2]=ti;
 223:main.c        ****         morsecode[3]=ti;
 224:main.c        ****     }
 225:main.c        **** }
 226:main.c        **** void modifymorsecode(char letter){
 227:main.c        ****     morse(letter);
 228:main.c        ****     morsecode[1]+=morsecode[0];
 229:main.c        ****     morsecode[2]+=morsecode[1];
 230:main.c        ****     morsecode[3]+=morsecode[2];
 231:main.c        ****     if (morsecode[1]<=morsecode[0]){    morsetottimespace=0;
 232:main.c        ****     }else if(morsecode[2]<=morsecode[1]){   morsetottimespace=5000;
 233:main.c        ****     }else if(morsecode[3]<=morsecode[2]){   morsetottimespace=10000;
 234:main.c        ****     }else { morsetottimespace=15000;}
 235:main.c        **** }
 236:main.c        **** 
 237:main.c        **** CY_ISR( MORSE ){
 238:main.c        ****     if (begin){
 239:main.c        ****         modifymorsecode(mot[morseint]);
 240:main.c        ****         if(morsecode[0]==ti) UART_PutChar('.');
 241:main.c        ****         if(morsecode[0]==taah) UART_PutChar('-');
 242:main.c        ****         if(morsecode[1]-morsecode[0]==ti) UART_PutChar('.');
 243:main.c        ****         if(morsecode[1]-morsecode[0]==taah) UART_PutChar('-');
 244:main.c        ****         if(morsecode[2]-morsecode[1]==ti) UART_PutChar('.');
 245:main.c        ****         if(morsecode[2]-morsecode[1]==taah) UART_PutChar('-');
 246:main.c        ****         if(morsecode[3]-morsecode[2]==ti) UART_PutChar('.');
 247:main.c        ****         if(morsecode[3]-morsecode[2]==taah) UART_PutChar('-');
 248:main.c        ****         UART_PutChar(' ');
 249:main.c        ****         
 250:main.c        ****         //if(light){
 251:main.c        ****             for (int ba=0; ba<26; ba++){
 252:main.c        ****                 if (semaphore_alphabet[ba].let==mot[morseint]){
 253:main.c        ****                     PWM_1_WriteCompare2((int)((semaphore_alphabet[ba].num/1.8)+26));
 254:main.c        ****                     PWM_1_WriteCompare1((int)((semaphore_alphabet[ba].num1/1.8)+26));
 255:main.c        ****                 }
 256:main.c        ****             }
 257:main.c        ****         
 258:main.c        ****         //}
ARM GAS  C:\Users\karam\AppData\Local\Temp\cclRBQQI.s 			page 6


 259:main.c        ****     }
 260:main.c        ****     begin = 0;
 261:main.c        ****     
 262:main.c        ****     if(countTime>morsetottimespace+morsecode[3]){
 263:main.c        ****         Timer_ReadStatusRegister();
 264:main.c        ****         if(countTime>morsetottimespace+morsecode[3]+20000){
 265:main.c        ****             begin=1;
 266:main.c        ****             countTime=0;
 267:main.c        ****             morseint++;
 268:main.c        ****             if(strlen(mot)==(morseint)){
 269:main.c        ****                 morseint=0;
 270:main.c        ****                 rxend=1;
 271:main.c        ****                 UART_PutChar('\n');
 272:main.c        ****                 //memset(formmot, 0, strlen(formmot));
 273:main.c        ****                 interrupt_Stop();
 274:main.c        ****             }
 275:main.c        ****         }
 276:main.c        ****     }
 277:main.c        ****     else{
 278:main.c        ****         if(countTime<morsecode[0] || ((countTime>(morsecode[0]+5000)) && (countTime<morsecode[1]+50
 279:main.c        ****             soundPlay();
 280:main.c        ****         }
 281:main.c        ****         else{
 282:main.c        ****             Timer_ReadStatusRegister();
 283:main.c        ****         }       
 284:main.c        ****     }
 285:main.c        ****     countTime++;
 286:main.c        **** }
 287:main.c        **** 
 288:main.c        **** CY_ISR( SW1_Handler ){
 289:main.c        ****     soundPlay();
 290:main.c        ****     if (!SW1_Read()){
 291:main.c        ****         pinsWrite(0);
 292:main.c        ****         interrupt_Stop();
 293:main.c        ****     }
 294:main.c        **** }
 295:main.c        **** 
 296:main.c        **** CY_ISR( SW2_Handler ){
 297:main.c        ****     if (countTimesw2>=5000){
 298:main.c        ****         pinsWrite(0);
 299:main.c        ****         interrupt_Stop();
 300:main.c        ****     }
 301:main.c        ****     else{
 302:main.c        ****         pinsWrite(1);
 303:main.c        ****         soundPlay();
 304:main.c        ****         countTimesw2++; //5000*50µs = 250ms
 305:main.c        ****     }
 306:main.c        **** }
 307:main.c        **** 
 308:main.c        **** CY_ISR( SW3_Handler ){
 309:main.c        ****     if (countTimesw3>=15000){
 310:main.c        ****         pinsWrite(0);
 311:main.c        ****         interrupt_Stop();
 312:main.c        ****     }
 313:main.c        ****     else{
 314:main.c        ****         pinsWrite(1);
 315:main.c        ****         soundPlay();
ARM GAS  C:\Users\karam\AppData\Local\Temp\cclRBQQI.s 			page 7


 316:main.c        ****         countTimesw3++; //15000*50µs = 750ms
 317:main.c        ****     }
 318:main.c        **** }
 319:main.c        **** 
 320:main.c        **** CY_ISR( SW4_Handler ){
 321:main.c        ****     soundPlay();
 322:main.c        ****     if (!SW1_Read()){
 323:main.c        ****         pinsWrite(0);
 324:main.c        ****         interrupt_Stop();
 325:main.c        ****     }
 326:main.c        **** }
 327:main.c        **** 
 328:main.c        **** CY_ISR ( uart_rx_Handler ) {
  28              		.loc 1 328 0
  29              		.cfi_startproc
  30              		@ args = 0, pretend = 0, frame = 0
  31              		@ frame_needed = 0, uses_anonymous_args = 0
  32 0000 38B5     		push	{r3, r4, r5, lr}
  33              		.cfi_def_cfa_offset 16
  34              		.cfi_offset 3, -16
  35              		.cfi_offset 4, -12
  36              		.cfi_offset 5, -8
  37              		.cfi_offset 14, -4
  38              	.L4:
 329:main.c        **** uint8_t status = 0;
 330:main.c        **** do{
 331:main.c        ****     // Checks if no UART Rx errors
 332:main.c        ****     status = UART_ReadRxStatus ();
  39              		.loc 1 332 0
  40 0002 FFF7FEFF 		bl	UART_ReadRxStatus
  41              	.LVL0:
  42 0006 0446     		mov	r4, r0
  43              	.LVL1:
 333:main.c        ****     if (( status & UART_RX_STS_PAR_ERROR ) |
  44              		.loc 1 333 0
  45 0008 10F01E0F 		tst	r0, #30
  46 000c 06D0     		beq	.L2
 334:main.c        ****         ( status & UART_RX_STS_STOP_ERROR ) |
 335:main.c        ****         ( status & UART_RX_STS_BREAK ) |
 336:main.c        ****         ( status & UART_RX_STS_OVERRUN ) ) {
 337:main.c        ****     // Parity , framing , break or overrun error
 338:main.c        ****     LCD_Position (1 ,0);
  47              		.loc 1 338 0
  48 000e 0021     		movs	r1, #0
  49 0010 0120     		movs	r0, #1
  50              	.LVL2:
  51 0012 FFF7FEFF 		bl	LCD_Position
  52              	.LVL3:
 339:main.c        ****     LCD_PrintString (" UART err");
  53              		.loc 1 339 0
  54 0016 0E48     		ldr	r0, .L6
  55 0018 FFF7FEFF 		bl	LCD_PrintString
  56              	.LVL4:
  57              	.L2:
  58 001c 04F02004 		and	r4, r4, #32
 340:main.c        ****     }
 341:main.c        ****     // Check that rx buffer is not empty and get rx data
ARM GAS  C:\Users\karam\AppData\Local\Temp\cclRBQQI.s 			page 8


 342:main.c        ****     if ( ( status & UART_RX_STS_FIFO_NOTEMPTY ) != 0){
  59              		.loc 1 342 0
  60 0020 04F0FF05 		and	r5, r4, #255
  61 0024 8CB1     		cbz	r4, .L3
 343:main.c        ****         
 344:main.c        ****         rxData = UART_ReadRxData ();
  62              		.loc 1 344 0
  63 0026 FFF7FEFF 		bl	UART_ReadRxData
  64              	.LVL5:
  65 002a 0A4B     		ldr	r3, .L6+4
  66 002c 1870     		strb	r0, [r3]
 345:main.c        ****         rxData_char = rxData+'0';
  67              		.loc 1 345 0
  68 002e 00F13001 		add	r1, r0, #48
  69 0032 094B     		ldr	r3, .L6+8
  70 0034 1970     		strb	r1, [r3]
 346:main.c        ****         formmot[k]=rxData;
  71              		.loc 1 346 0
  72 0036 094C     		ldr	r4, .L6+12
  73 0038 2368     		ldr	r3, [r4]
  74 003a 0949     		ldr	r1, .L6+16
  75 003c C854     		strb	r0, [r1, r3]
 347:main.c        ****         k++;
  76              		.loc 1 347 0
  77 003e 0133     		adds	r3, r3, #1
  78 0040 2360     		str	r3, [r4]
 348:main.c        ****         LCD_PutChar(rxData);
  79              		.loc 1 348 0
  80 0042 FFF7FEFF 		bl	LCD_PutChar
  81              	.LVL6:
 349:main.c        ****         rxbegin=1;
  82              		.loc 1 349 0
  83 0046 0123     		movs	r3, #1
  84 0048 2371     		strb	r3, [r4, #4]
  85              	.L3:
 350:main.c        ****     }
 351:main.c        **** } while (( status & UART_RX_STS_FIFO_NOTEMPTY ) != 0);
  86              		.loc 1 351 0
  87 004a 002D     		cmp	r5, #0
  88 004c D9D1     		bne	.L4
 352:main.c        **** }
  89              		.loc 1 352 0
  90 004e 38BD     		pop	{r3, r4, r5, pc}
  91              	.L7:
  92              		.align	2
  93              	.L6:
  94 0050 00000000 		.word	.LC0
  95 0054 00000000 		.word	rxData
  96 0058 00000000 		.word	rxData_char
  97 005c 00000000 		.word	.LANCHOR0
  98 0060 00000000 		.word	formmot
  99              		.cfi_endproc
 100              	.LFE72:
 101              		.size	uart_rx_Handler, .-uart_rx_Handler
 102              		.section	.text.pinsWrite,"ax",%progbits
 103              		.align	2
 104              		.global	pinsWrite
ARM GAS  C:\Users\karam\AppData\Local\Temp\cclRBQQI.s 			page 9


 105              		.thumb
 106              		.thumb_func
 107              		.type	pinsWrite, %function
 108              	pinsWrite:
 109              	.LFB63:
  67:main.c        ****     if (light){
 110              		.loc 1 67 0
 111              		.cfi_startproc
 112              		@ args = 0, pretend = 0, frame = 0
 113              		@ frame_needed = 0, uses_anonymous_args = 0
 114              	.LVL7:
 115 0000 10B5     		push	{r4, lr}
 116              		.cfi_def_cfa_offset 8
 117              		.cfi_offset 4, -8
 118              		.cfi_offset 14, -4
  68:main.c        ****         value=0;
 119              		.loc 1 68 0
 120 0002 094B     		ldr	r3, .L12
 121 0004 1B78     		ldrb	r3, [r3]	@ zero_extendqisi2
 122 0006 03B1     		cbz	r3, .L9
  69:main.c        ****     }
 123              		.loc 1 69 0
 124 0008 0020     		movs	r0, #0
 125              	.LVL8:
 126              	.L9:
  71:main.c        ****     Pin_2_Write(value);
 127              		.loc 1 71 0
 128 000a C4B2     		uxtb	r4, r0
 129 000c 2046     		mov	r0, r4
 130              	.LVL9:
 131 000e FFF7FEFF 		bl	Pin_1_Write
 132              	.LVL10:
  72:main.c        ****     Pin_3_Write(value);
 133              		.loc 1 72 0
 134 0012 2046     		mov	r0, r4
 135 0014 FFF7FEFF 		bl	Pin_2_Write
 136              	.LVL11:
  73:main.c        ****     Pin_4_Write(value);
 137              		.loc 1 73 0
 138 0018 2046     		mov	r0, r4
 139 001a FFF7FEFF 		bl	Pin_3_Write
 140              	.LVL12:
  74:main.c        **** }
 141              		.loc 1 74 0
 142 001e 2046     		mov	r0, r4
 143 0020 FFF7FEFF 		bl	Pin_4_Write
 144              	.LVL13:
 145 0024 10BD     		pop	{r4, pc}
 146              	.L13:
 147 0026 00BF     		.align	2
 148              	.L12:
 149 0028 00000000 		.word	light
 150              		.cfi_endproc
 151              	.LFE63:
 152              		.size	pinsWrite, .-pinsWrite
 153              		.global	__aeabi_fmul
 154              		.global	__aeabi_f2uiz
ARM GAS  C:\Users\karam\AppData\Local\Temp\cclRBQQI.s 			page 10


 155              		.section	.text.soundPlay,"ax",%progbits
 156              		.align	2
 157              		.global	soundPlay
 158              		.thumb
 159              		.thumb_func
 160              		.type	soundPlay, %function
 161              	soundPlay:
 162              	.LFB64:
  77:main.c        ****     if (count==99){
 163              		.loc 1 77 0
 164              		.cfi_startproc
 165              		@ args = 0, pretend = 0, frame = 0
 166              		@ frame_needed = 0, uses_anonymous_args = 0
 167 0000 10B5     		push	{r4, lr}
 168              		.cfi_def_cfa_offset 8
 169              		.cfi_offset 4, -8
 170              		.cfi_offset 14, -4
  78:main.c        ****         count=0;
 171              		.loc 1 78 0
 172 0002 0D4B     		ldr	r3, .L17
 173 0004 9B68     		ldr	r3, [r3, #8]
 174 0006 632B     		cmp	r3, #99
 175 0008 02D1     		bne	.L15
  79:main.c        ****     }
 176              		.loc 1 79 0
 177 000a 0022     		movs	r2, #0
 178 000c 0A4B     		ldr	r3, .L17
 179 000e 9A60     		str	r2, [r3, #8]
 180              	.L15:
  81:main.c        ****     VDAC8_1_SetValue(vec[count]*128);
 181              		.loc 1 81 0
 182 0010 FFF7FEFF 		bl	Timer_ReadStatusRegister
 183              	.LVL14:
  82:main.c        ****     count++;
 184              		.loc 1 82 0
 185 0014 084C     		ldr	r4, .L17
 186 0016 A268     		ldr	r2, [r4, #8]
 187 0018 4FF08641 		mov	r1, #1124073472
 188 001c 074B     		ldr	r3, .L17+4
 189 001e 53F82200 		ldr	r0, [r3, r2, lsl #2]	@ float
 190 0022 FFF7FEFF 		bl	__aeabi_fmul
 191              	.LVL15:
 192 0026 FFF7FEFF 		bl	__aeabi_f2uiz
 193              	.LVL16:
 194 002a C0B2     		uxtb	r0, r0
 195 002c FFF7FEFF 		bl	VDAC8_1_SetValue
 196              	.LVL17:
  83:main.c        **** }
 197              		.loc 1 83 0
 198 0030 A368     		ldr	r3, [r4, #8]
 199 0032 0133     		adds	r3, r3, #1
 200 0034 A360     		str	r3, [r4, #8]
 201 0036 10BD     		pop	{r4, pc}
 202              	.L18:
 203              		.align	2
 204              	.L17:
 205 0038 00000000 		.word	.LANCHOR0
ARM GAS  C:\Users\karam\AppData\Local\Temp\cclRBQQI.s 			page 11


 206 003c 00000000 		.word	vec
 207              		.cfi_endproc
 208              	.LFE64:
 209              		.size	soundPlay, .-soundPlay
 210              		.section	.text.SW1_Handler,"ax",%progbits
 211              		.align	2
 212              		.global	SW1_Handler
 213              		.thumb
 214              		.thumb_func
 215              		.type	SW1_Handler, %function
 216              	SW1_Handler:
 217              	.LFB68:
 288:main.c        ****     soundPlay();
 218              		.loc 1 288 0
 219              		.cfi_startproc
 220              		@ args = 0, pretend = 0, frame = 0
 221              		@ frame_needed = 0, uses_anonymous_args = 0
 222 0000 08B5     		push	{r3, lr}
 223              		.cfi_def_cfa_offset 8
 224              		.cfi_offset 3, -8
 225              		.cfi_offset 14, -4
 289:main.c        ****     if (!SW1_Read()){
 226              		.loc 1 289 0
 227 0002 FFF7FEFF 		bl	soundPlay
 228              	.LVL18:
 290:main.c        ****         pinsWrite(0);
 229              		.loc 1 290 0
 230 0006 FFF7FEFF 		bl	SW1_Read
 231              	.LVL19:
 232 000a 18B9     		cbnz	r0, .L19
 291:main.c        ****         interrupt_Stop();
 233              		.loc 1 291 0
 234 000c FFF7FEFF 		bl	pinsWrite
 235              	.LVL20:
 292:main.c        ****     }
 236              		.loc 1 292 0
 237 0010 FFF7FEFF 		bl	interrupt_Stop
 238              	.LVL21:
 239              	.L19:
 240 0014 08BD     		pop	{r3, pc}
 241              		.cfi_endproc
 242              	.LFE68:
 243              		.size	SW1_Handler, .-SW1_Handler
 244 0016 00BF     		.section	.text.SW2_Handler,"ax",%progbits
 245              		.align	2
 246              		.global	SW2_Handler
 247              		.thumb
 248              		.thumb_func
 249              		.type	SW2_Handler, %function
 250              	SW2_Handler:
 251              	.LFB69:
 296:main.c        ****     if (countTimesw2>=5000){
 252              		.loc 1 296 0
 253              		.cfi_startproc
 254              		@ args = 0, pretend = 0, frame = 0
 255              		@ frame_needed = 0, uses_anonymous_args = 0
 256 0000 08B5     		push	{r3, lr}
ARM GAS  C:\Users\karam\AppData\Local\Temp\cclRBQQI.s 			page 12


 257              		.cfi_def_cfa_offset 8
 258              		.cfi_offset 3, -8
 259              		.cfi_offset 14, -4
 297:main.c        ****         pinsWrite(0);
 260              		.loc 1 297 0
 261 0002 0B4B     		ldr	r3, .L26
 262 0004 DA68     		ldr	r2, [r3, #12]
 263 0006 41F28733 		movw	r3, #4999
 264 000a 9A42     		cmp	r2, r3
 265 000c 05DD     		ble	.L23
 298:main.c        ****         interrupt_Stop();
 266              		.loc 1 298 0
 267 000e 0020     		movs	r0, #0
 268 0010 FFF7FEFF 		bl	pinsWrite
 269              	.LVL22:
 299:main.c        ****     }
 270              		.loc 1 299 0
 271 0014 FFF7FEFF 		bl	interrupt_Stop
 272              	.LVL23:
 273 0018 08BD     		pop	{r3, pc}
 274              	.L23:
 302:main.c        ****         soundPlay();
 275              		.loc 1 302 0
 276 001a 0120     		movs	r0, #1
 277 001c FFF7FEFF 		bl	pinsWrite
 278              	.LVL24:
 303:main.c        ****         countTimesw2++; //5000*50µs = 250ms
 279              		.loc 1 303 0
 280 0020 FFF7FEFF 		bl	soundPlay
 281              	.LVL25:
 304:main.c        ****     }
 282              		.loc 1 304 0
 283 0024 024A     		ldr	r2, .L26
 284 0026 D368     		ldr	r3, [r2, #12]
 285 0028 0133     		adds	r3, r3, #1
 286 002a D360     		str	r3, [r2, #12]
 287 002c 08BD     		pop	{r3, pc}
 288              	.L27:
 289 002e 00BF     		.align	2
 290              	.L26:
 291 0030 00000000 		.word	.LANCHOR0
 292              		.cfi_endproc
 293              	.LFE69:
 294              		.size	SW2_Handler, .-SW2_Handler
 295              		.section	.text.SW3_Handler,"ax",%progbits
 296              		.align	2
 297              		.global	SW3_Handler
 298              		.thumb
 299              		.thumb_func
 300              		.type	SW3_Handler, %function
 301              	SW3_Handler:
 302              	.LFB70:
 308:main.c        ****     if (countTimesw3>=15000){
 303              		.loc 1 308 0
 304              		.cfi_startproc
 305              		@ args = 0, pretend = 0, frame = 0
 306              		@ frame_needed = 0, uses_anonymous_args = 0
ARM GAS  C:\Users\karam\AppData\Local\Temp\cclRBQQI.s 			page 13


 307 0000 08B5     		push	{r3, lr}
 308              		.cfi_def_cfa_offset 8
 309              		.cfi_offset 3, -8
 310              		.cfi_offset 14, -4
 309:main.c        ****         pinsWrite(0);
 311              		.loc 1 309 0
 312 0002 0B4B     		ldr	r3, .L32
 313 0004 1A69     		ldr	r2, [r3, #16]
 314 0006 43F69723 		movw	r3, #14999
 315 000a 9A42     		cmp	r2, r3
 316 000c 05DD     		ble	.L29
 310:main.c        ****         interrupt_Stop();
 317              		.loc 1 310 0
 318 000e 0020     		movs	r0, #0
 319 0010 FFF7FEFF 		bl	pinsWrite
 320              	.LVL26:
 311:main.c        ****     }
 321              		.loc 1 311 0
 322 0014 FFF7FEFF 		bl	interrupt_Stop
 323              	.LVL27:
 324 0018 08BD     		pop	{r3, pc}
 325              	.L29:
 314:main.c        ****         soundPlay();
 326              		.loc 1 314 0
 327 001a 0120     		movs	r0, #1
 328 001c FFF7FEFF 		bl	pinsWrite
 329              	.LVL28:
 315:main.c        ****         countTimesw3++; //15000*50µs = 750ms
 330              		.loc 1 315 0
 331 0020 FFF7FEFF 		bl	soundPlay
 332              	.LVL29:
 316:main.c        ****     }
 333              		.loc 1 316 0
 334 0024 024A     		ldr	r2, .L32
 335 0026 1369     		ldr	r3, [r2, #16]
 336 0028 0133     		adds	r3, r3, #1
 337 002a 1361     		str	r3, [r2, #16]
 338 002c 08BD     		pop	{r3, pc}
 339              	.L33:
 340 002e 00BF     		.align	2
 341              	.L32:
 342 0030 00000000 		.word	.LANCHOR0
 343              		.cfi_endproc
 344              	.LFE70:
 345              		.size	SW3_Handler, .-SW3_Handler
 346              		.section	.text.morse,"ax",%progbits
 347              		.align	2
 348              		.global	morse
 349              		.thumb
 350              		.thumb_func
 351              		.type	morse, %function
 352              	morse:
 353              	.LFB65:
  86:main.c        ****     morsecode[0]=0;
 354              		.loc 1 86 0
 355              		.cfi_startproc
 356              		@ args = 0, pretend = 0, frame = 0
ARM GAS  C:\Users\karam\AppData\Local\Temp\cclRBQQI.s 			page 14


 357              		@ frame_needed = 0, uses_anonymous_args = 0
 358              		@ link register save eliminated.
 359              	.LVL30:
  87:main.c        ****     morsecode[1]=0;
 360              		.loc 1 87 0
 361 0000 824B     		ldr	r3, .L61
 362 0002 0022     		movs	r2, #0
 363 0004 5A61     		str	r2, [r3, #20]
  88:main.c        ****     morsecode[2]=0;
 364              		.loc 1 88 0
 365 0006 9A61     		str	r2, [r3, #24]
  89:main.c        ****     morsecode[3]=0;
 366              		.loc 1 89 0
 367 0008 DA61     		str	r2, [r3, #28]
  90:main.c        ****     if(letter=='a'){
 368              		.loc 1 90 0
 369 000a 1A62     		str	r2, [r3, #32]
  91:main.c        ****         morsecode[0]=ti;
 370              		.loc 1 91 0
 371 000c 6128     		cmp	r0, #97
 372 000e 05D1     		bne	.L35
  92:main.c        ****         morsecode[1]=taah;
 373              		.loc 1 92 0
 374 0010 7F4A     		ldr	r2, .L61+4
 375 0012 1168     		ldr	r1, [r2]
 376 0014 5961     		str	r1, [r3, #20]
  93:main.c        ****     }
 377              		.loc 1 93 0
 378 0016 5268     		ldr	r2, [r2, #4]
 379 0018 9A61     		str	r2, [r3, #24]
 380 001a 7047     		bx	lr
 381              	.L35:
  95:main.c        ****         morsecode[0]=taah;
 382              		.loc 1 95 0
 383 001c 6228     		cmp	r0, #98
 384 001e 08D1     		bne	.L37
  96:main.c        ****         morsecode[1]=ti;
 385              		.loc 1 96 0
 386 0020 7A4B     		ldr	r3, .L61
 387 0022 7B4A     		ldr	r2, .L61+4
 388 0024 5168     		ldr	r1, [r2, #4]
 389 0026 5961     		str	r1, [r3, #20]
  97:main.c        ****         morsecode[2]=ti;
 390              		.loc 1 97 0
 391 0028 1268     		ldr	r2, [r2]
 392 002a 9A61     		str	r2, [r3, #24]
  98:main.c        ****         morsecode[3]=ti;
 393              		.loc 1 98 0
 394 002c DA61     		str	r2, [r3, #28]
  99:main.c        ****     }
 395              		.loc 1 99 0
 396 002e 1A62     		str	r2, [r3, #32]
 397 0030 7047     		bx	lr
 398              	.L37:
 101:main.c        ****         morsecode[0]=taah;
 399              		.loc 1 101 0
 400 0032 6328     		cmp	r0, #99
ARM GAS  C:\Users\karam\AppData\Local\Temp\cclRBQQI.s 			page 15


 401 0034 08D1     		bne	.L38
 102:main.c        ****         morsecode[1]=ti;
 402              		.loc 1 102 0
 403 0036 764A     		ldr	r2, .L61+4
 404 0038 5168     		ldr	r1, [r2, #4]
 405 003a 744B     		ldr	r3, .L61
 406 003c 5961     		str	r1, [r3, #20]
 103:main.c        ****         morsecode[2]=taah;
 407              		.loc 1 103 0
 408 003e 1268     		ldr	r2, [r2]
 409 0040 9A61     		str	r2, [r3, #24]
 104:main.c        ****         morsecode[3]=ti;
 410              		.loc 1 104 0
 411 0042 D961     		str	r1, [r3, #28]
 105:main.c        ****     }
 412              		.loc 1 105 0
 413 0044 1A62     		str	r2, [r3, #32]
 414 0046 7047     		bx	lr
 415              	.L38:
 107:main.c        ****         morsecode[0]=taah;
 416              		.loc 1 107 0
 417 0048 6428     		cmp	r0, #100
 418 004a 07D1     		bne	.L39
 108:main.c        ****         morsecode[1]=ti;
 419              		.loc 1 108 0
 420 004c 6F4B     		ldr	r3, .L61
 421 004e 704A     		ldr	r2, .L61+4
 422 0050 5168     		ldr	r1, [r2, #4]
 423 0052 5961     		str	r1, [r3, #20]
 109:main.c        ****         morsecode[2]=ti;
 424              		.loc 1 109 0
 425 0054 1268     		ldr	r2, [r2]
 426 0056 9A61     		str	r2, [r3, #24]
 110:main.c        ****     }
 427              		.loc 1 110 0
 428 0058 DA61     		str	r2, [r3, #28]
 429 005a 7047     		bx	lr
 430              	.L39:
 112:main.c        ****         morsecode[0]=ti;
 431              		.loc 1 112 0
 432 005c 6528     		cmp	r0, #101
 433 005e 04D1     		bne	.L40
 113:main.c        ****     }
 434              		.loc 1 113 0
 435 0060 6B4B     		ldr	r3, .L61+4
 436 0062 1A68     		ldr	r2, [r3]
 437 0064 694B     		ldr	r3, .L61
 438 0066 5A61     		str	r2, [r3, #20]
 439 0068 7047     		bx	lr
 440              	.L40:
 115:main.c        ****         morsecode[0]=ti;
 441              		.loc 1 115 0
 442 006a 6628     		cmp	r0, #102
 443 006c 08D1     		bne	.L41
 116:main.c        ****         morsecode[1]=ti;
 444              		.loc 1 116 0
 445 006e 6849     		ldr	r1, .L61+4
ARM GAS  C:\Users\karam\AppData\Local\Temp\cclRBQQI.s 			page 16


 446 0070 0A68     		ldr	r2, [r1]
 447 0072 664B     		ldr	r3, .L61
 448 0074 5A61     		str	r2, [r3, #20]
 117:main.c        ****         morsecode[2]=taah;
 449              		.loc 1 117 0
 450 0076 9A61     		str	r2, [r3, #24]
 118:main.c        ****         morsecode[3]=ti;
 451              		.loc 1 118 0
 452 0078 4968     		ldr	r1, [r1, #4]
 453 007a D961     		str	r1, [r3, #28]
 119:main.c        ****     }
 454              		.loc 1 119 0
 455 007c 1A62     		str	r2, [r3, #32]
 456 007e 7047     		bx	lr
 457              	.L41:
 121:main.c        ****         morsecode[0]=taah;
 458              		.loc 1 121 0
 459 0080 6728     		cmp	r0, #103
 460 0082 07D1     		bne	.L42
 122:main.c        ****         morsecode[1]=taah;
 461              		.loc 1 122 0
 462 0084 624A     		ldr	r2, .L61+4
 463 0086 5168     		ldr	r1, [r2, #4]
 464 0088 604B     		ldr	r3, .L61
 465 008a 5961     		str	r1, [r3, #20]
 123:main.c        ****         morsecode[2]=ti;
 466              		.loc 1 123 0
 467 008c 9961     		str	r1, [r3, #24]
 124:main.c        ****     }
 468              		.loc 1 124 0
 469 008e 1268     		ldr	r2, [r2]
 470 0090 DA61     		str	r2, [r3, #28]
 471 0092 7047     		bx	lr
 472              	.L42:
 126:main.c        ****         morsecode[0]=ti;
 473              		.loc 1 126 0
 474 0094 6828     		cmp	r0, #104
 475 0096 07D1     		bne	.L43
 127:main.c        ****         morsecode[1]=ti;
 476              		.loc 1 127 0
 477 0098 5D4B     		ldr	r3, .L61+4
 478 009a 1A68     		ldr	r2, [r3]
 479 009c 5B4B     		ldr	r3, .L61
 480 009e 5A61     		str	r2, [r3, #20]
 128:main.c        ****         morsecode[2]=ti;
 481              		.loc 1 128 0
 482 00a0 9A61     		str	r2, [r3, #24]
 129:main.c        ****         morsecode[3]=ti;
 483              		.loc 1 129 0
 484 00a2 DA61     		str	r2, [r3, #28]
 130:main.c        ****     }
 485              		.loc 1 130 0
 486 00a4 1A62     		str	r2, [r3, #32]
 487 00a6 7047     		bx	lr
 488              	.L43:
 132:main.c        ****         morsecode[0]=ti;
 489              		.loc 1 132 0
ARM GAS  C:\Users\karam\AppData\Local\Temp\cclRBQQI.s 			page 17


 490 00a8 6928     		cmp	r0, #105
 491 00aa 05D1     		bne	.L44
 133:main.c        ****         morsecode[1]=ti;
 492              		.loc 1 133 0
 493 00ac 584B     		ldr	r3, .L61+4
 494 00ae 1A68     		ldr	r2, [r3]
 495 00b0 564B     		ldr	r3, .L61
 496 00b2 5A61     		str	r2, [r3, #20]
 134:main.c        ****     }
 497              		.loc 1 134 0
 498 00b4 9A61     		str	r2, [r3, #24]
 499 00b6 7047     		bx	lr
 500              	.L44:
 136:main.c        ****         morsecode[0]=ti;
 501              		.loc 1 136 0
 502 00b8 6A28     		cmp	r0, #106
 503 00ba 08D1     		bne	.L45
 137:main.c        ****         morsecode[1]=taah;
 504              		.loc 1 137 0
 505 00bc 534B     		ldr	r3, .L61
 506 00be 544A     		ldr	r2, .L61+4
 507 00c0 1168     		ldr	r1, [r2]
 508 00c2 5961     		str	r1, [r3, #20]
 138:main.c        ****         morsecode[2]=taah;
 509              		.loc 1 138 0
 510 00c4 5268     		ldr	r2, [r2, #4]
 511 00c6 9A61     		str	r2, [r3, #24]
 139:main.c        ****         morsecode[3]=taah;
 512              		.loc 1 139 0
 513 00c8 DA61     		str	r2, [r3, #28]
 140:main.c        ****     }
 514              		.loc 1 140 0
 515 00ca 1A62     		str	r2, [r3, #32]
 516 00cc 7047     		bx	lr
 517              	.L45:
 142:main.c        ****         morsecode[0]=taah;
 518              		.loc 1 142 0
 519 00ce 6B28     		cmp	r0, #107
 520 00d0 07D1     		bne	.L46
 143:main.c        ****         morsecode[1]=ti;
 521              		.loc 1 143 0
 522 00d2 4F49     		ldr	r1, .L61+4
 523 00d4 4A68     		ldr	r2, [r1, #4]
 524 00d6 4D4B     		ldr	r3, .L61
 525 00d8 5A61     		str	r2, [r3, #20]
 144:main.c        ****         morsecode[2]=taah;
 526              		.loc 1 144 0
 527 00da 0968     		ldr	r1, [r1]
 528 00dc 9961     		str	r1, [r3, #24]
 145:main.c        ****     }
 529              		.loc 1 145 0
 530 00de DA61     		str	r2, [r3, #28]
 531 00e0 7047     		bx	lr
 532              	.L46:
 147:main.c        ****         morsecode[0]=ti;
 533              		.loc 1 147 0
 534 00e2 6C28     		cmp	r0, #108
ARM GAS  C:\Users\karam\AppData\Local\Temp\cclRBQQI.s 			page 18


 535 00e4 08D1     		bne	.L47
 148:main.c        ****         morsecode[1]=taah;
 536              		.loc 1 148 0
 537 00e6 4A49     		ldr	r1, .L61+4
 538 00e8 0A68     		ldr	r2, [r1]
 539 00ea 484B     		ldr	r3, .L61
 540 00ec 5A61     		str	r2, [r3, #20]
 149:main.c        ****         morsecode[2]=ti;
 541              		.loc 1 149 0
 542 00ee 4968     		ldr	r1, [r1, #4]
 543 00f0 9961     		str	r1, [r3, #24]
 150:main.c        ****         morsecode[3]=ti;
 544              		.loc 1 150 0
 545 00f2 DA61     		str	r2, [r3, #28]
 151:main.c        ****     }
 546              		.loc 1 151 0
 547 00f4 1A62     		str	r2, [r3, #32]
 548 00f6 7047     		bx	lr
 549              	.L47:
 153:main.c        ****         morsecode[0]=taah;
 550              		.loc 1 153 0
 551 00f8 6D28     		cmp	r0, #109
 552 00fa 05D1     		bne	.L48
 154:main.c        ****         morsecode[1]=taah;
 553              		.loc 1 154 0
 554 00fc 444B     		ldr	r3, .L61+4
 555 00fe 5A68     		ldr	r2, [r3, #4]
 556 0100 424B     		ldr	r3, .L61
 557 0102 5A61     		str	r2, [r3, #20]
 155:main.c        ****     }
 558              		.loc 1 155 0
 559 0104 9A61     		str	r2, [r3, #24]
 560 0106 7047     		bx	lr
 561              	.L48:
 157:main.c        ****         morsecode[0]=taah;
 562              		.loc 1 157 0
 563 0108 6E28     		cmp	r0, #110
 564 010a 06D1     		bne	.L49
 158:main.c        ****         morsecode[1]=ti;
 565              		.loc 1 158 0
 566 010c 3F4B     		ldr	r3, .L61
 567 010e 404A     		ldr	r2, .L61+4
 568 0110 5168     		ldr	r1, [r2, #4]
 569 0112 5961     		str	r1, [r3, #20]
 159:main.c        ****     }
 570              		.loc 1 159 0
 571 0114 1268     		ldr	r2, [r2]
 572 0116 9A61     		str	r2, [r3, #24]
 573 0118 7047     		bx	lr
 574              	.L49:
 161:main.c        ****         morsecode[0]=taah;
 575              		.loc 1 161 0
 576 011a 6F28     		cmp	r0, #111
 577 011c 06D1     		bne	.L50
 162:main.c        ****         morsecode[1]=taah;
 578              		.loc 1 162 0
 579 011e 3C4B     		ldr	r3, .L61+4
ARM GAS  C:\Users\karam\AppData\Local\Temp\cclRBQQI.s 			page 19


 580 0120 5A68     		ldr	r2, [r3, #4]
 581 0122 3A4B     		ldr	r3, .L61
 582 0124 5A61     		str	r2, [r3, #20]
 163:main.c        ****         morsecode[2]=taah;
 583              		.loc 1 163 0
 584 0126 9A61     		str	r2, [r3, #24]
 164:main.c        ****     }
 585              		.loc 1 164 0
 586 0128 DA61     		str	r2, [r3, #28]
 587 012a 7047     		bx	lr
 588              	.L50:
 166:main.c        ****         morsecode[0]=ti;
 589              		.loc 1 166 0
 590 012c 7028     		cmp	r0, #112
 591 012e 08D1     		bne	.L51
 167:main.c        ****         morsecode[1]=taah;
 592              		.loc 1 167 0
 593 0130 3749     		ldr	r1, .L61+4
 594 0132 0A68     		ldr	r2, [r1]
 595 0134 354B     		ldr	r3, .L61
 596 0136 5A61     		str	r2, [r3, #20]
 168:main.c        ****         morsecode[2]=taah;
 597              		.loc 1 168 0
 598 0138 4968     		ldr	r1, [r1, #4]
 599 013a 9961     		str	r1, [r3, #24]
 169:main.c        ****         morsecode[3]=ti;
 600              		.loc 1 169 0
 601 013c D961     		str	r1, [r3, #28]
 170:main.c        ****     }
 602              		.loc 1 170 0
 603 013e 1A62     		str	r2, [r3, #32]
 604 0140 7047     		bx	lr
 605              	.L51:
 172:main.c        ****         morsecode[0]=taah;
 606              		.loc 1 172 0
 607 0142 7128     		cmp	r0, #113
 608 0144 08D1     		bne	.L52
 173:main.c        ****         morsecode[1]=taah;
 609              		.loc 1 173 0
 610 0146 3249     		ldr	r1, .L61+4
 611 0148 4A68     		ldr	r2, [r1, #4]
 612 014a 304B     		ldr	r3, .L61
 613 014c 5A61     		str	r2, [r3, #20]
 174:main.c        ****         morsecode[2]=ti;
 614              		.loc 1 174 0
 615 014e 9A61     		str	r2, [r3, #24]
 175:main.c        ****         morsecode[3]=taah;
 616              		.loc 1 175 0
 617 0150 0968     		ldr	r1, [r1]
 618 0152 D961     		str	r1, [r3, #28]
 176:main.c        ****     }
 619              		.loc 1 176 0
 620 0154 1A62     		str	r2, [r3, #32]
 621 0156 7047     		bx	lr
 622              	.L52:
 178:main.c        ****         morsecode[0]=ti;
 623              		.loc 1 178 0
ARM GAS  C:\Users\karam\AppData\Local\Temp\cclRBQQI.s 			page 20


 624 0158 7228     		cmp	r0, #114
 625 015a 07D1     		bne	.L53
 179:main.c        ****         morsecode[1]=taah;
 626              		.loc 1 179 0
 627 015c 2C49     		ldr	r1, .L61+4
 628 015e 0A68     		ldr	r2, [r1]
 629 0160 2A4B     		ldr	r3, .L61
 630 0162 5A61     		str	r2, [r3, #20]
 180:main.c        ****         morsecode[2]=ti;
 631              		.loc 1 180 0
 632 0164 4968     		ldr	r1, [r1, #4]
 633 0166 9961     		str	r1, [r3, #24]
 181:main.c        ****     }
 634              		.loc 1 181 0
 635 0168 DA61     		str	r2, [r3, #28]
 636 016a 7047     		bx	lr
 637              	.L53:
 183:main.c        ****         morsecode[0]=ti;
 638              		.loc 1 183 0
 639 016c 7328     		cmp	r0, #115
 640 016e 06D1     		bne	.L54
 184:main.c        ****         morsecode[1]=ti;
 641              		.loc 1 184 0
 642 0170 274B     		ldr	r3, .L61+4
 643 0172 1A68     		ldr	r2, [r3]
 644 0174 254B     		ldr	r3, .L61
 645 0176 5A61     		str	r2, [r3, #20]
 185:main.c        ****         morsecode[2]=ti;
 646              		.loc 1 185 0
 647 0178 9A61     		str	r2, [r3, #24]
 186:main.c        ****     }
 648              		.loc 1 186 0
 649 017a DA61     		str	r2, [r3, #28]
 650 017c 7047     		bx	lr
 651              	.L54:
 188:main.c        ****         morsecode[0]=taah;
 652              		.loc 1 188 0
 653 017e 7428     		cmp	r0, #116
 654 0180 04D1     		bne	.L55
 189:main.c        ****     }
 655              		.loc 1 189 0
 656 0182 234B     		ldr	r3, .L61+4
 657 0184 5A68     		ldr	r2, [r3, #4]
 658 0186 214B     		ldr	r3, .L61
 659 0188 5A61     		str	r2, [r3, #20]
 660 018a 7047     		bx	lr
 661              	.L55:
 191:main.c        ****         morsecode[0]=ti;
 662              		.loc 1 191 0
 663 018c 7528     		cmp	r0, #117
 664 018e 07D1     		bne	.L56
 192:main.c        ****         morsecode[1]=ti;
 665              		.loc 1 192 0
 666 0190 1F4A     		ldr	r2, .L61+4
 667 0192 1168     		ldr	r1, [r2]
 668 0194 1D4B     		ldr	r3, .L61
 669 0196 5961     		str	r1, [r3, #20]
ARM GAS  C:\Users\karam\AppData\Local\Temp\cclRBQQI.s 			page 21


 193:main.c        ****         morsecode[2]=taah;
 670              		.loc 1 193 0
 671 0198 9961     		str	r1, [r3, #24]
 194:main.c        ****     }
 672              		.loc 1 194 0
 673 019a 5268     		ldr	r2, [r2, #4]
 674 019c DA61     		str	r2, [r3, #28]
 675 019e 7047     		bx	lr
 676              	.L56:
 196:main.c        ****         morsecode[0]=ti;
 677              		.loc 1 196 0
 678 01a0 7628     		cmp	r0, #118
 679 01a2 08D1     		bne	.L57
 197:main.c        ****         morsecode[1]=ti;
 680              		.loc 1 197 0
 681 01a4 1A49     		ldr	r1, .L61+4
 682 01a6 0A68     		ldr	r2, [r1]
 683 01a8 184B     		ldr	r3, .L61
 684 01aa 5A61     		str	r2, [r3, #20]
 198:main.c        ****         morsecode[2]=ti;
 685              		.loc 1 198 0
 686 01ac 9A61     		str	r2, [r3, #24]
 199:main.c        ****         morsecode[3]=taah;
 687              		.loc 1 199 0
 688 01ae DA61     		str	r2, [r3, #28]
 200:main.c        ****     }
 689              		.loc 1 200 0
 690 01b0 4A68     		ldr	r2, [r1, #4]
 691 01b2 1A62     		str	r2, [r3, #32]
 692 01b4 7047     		bx	lr
 693              	.L57:
 202:main.c        ****         morsecode[0]=ti;
 694              		.loc 1 202 0
 695 01b6 7728     		cmp	r0, #119
 696 01b8 07D1     		bne	.L58
 203:main.c        ****         morsecode[1]=taah;
 697              		.loc 1 203 0
 698 01ba 144B     		ldr	r3, .L61
 699 01bc 144A     		ldr	r2, .L61+4
 700 01be 1168     		ldr	r1, [r2]
 701 01c0 5961     		str	r1, [r3, #20]
 204:main.c        ****         morsecode[2]=taah;
 702              		.loc 1 204 0
 703 01c2 5268     		ldr	r2, [r2, #4]
 704 01c4 9A61     		str	r2, [r3, #24]
 205:main.c        ****     }
 705              		.loc 1 205 0
 706 01c6 DA61     		str	r2, [r3, #28]
 707 01c8 7047     		bx	lr
 708              	.L58:
 207:main.c        ****         morsecode[0]=taah;
 709              		.loc 1 207 0
 710 01ca 7828     		cmp	r0, #120
 711 01cc 08D1     		bne	.L59
 208:main.c        ****         morsecode[1]=ti;
 712              		.loc 1 208 0
 713 01ce 1049     		ldr	r1, .L61+4
ARM GAS  C:\Users\karam\AppData\Local\Temp\cclRBQQI.s 			page 22


 714 01d0 4A68     		ldr	r2, [r1, #4]
 715 01d2 0E4B     		ldr	r3, .L61
 716 01d4 5A61     		str	r2, [r3, #20]
 209:main.c        ****         morsecode[2]=ti;
 717              		.loc 1 209 0
 718 01d6 0968     		ldr	r1, [r1]
 719 01d8 9961     		str	r1, [r3, #24]
 210:main.c        ****         morsecode[3]=taah;
 720              		.loc 1 210 0
 721 01da D961     		str	r1, [r3, #28]
 211:main.c        ****     }
 722              		.loc 1 211 0
 723 01dc 1A62     		str	r2, [r3, #32]
 724 01de 7047     		bx	lr
 725              	.L59:
 213:main.c        ****         morsecode[0]=taah;
 726              		.loc 1 213 0
 727 01e0 7928     		cmp	r0, #121
 728 01e2 08D1     		bne	.L60
 214:main.c        ****         morsecode[1]=ti;
 729              		.loc 1 214 0
 730 01e4 0A49     		ldr	r1, .L61+4
 731 01e6 4A68     		ldr	r2, [r1, #4]
 732 01e8 084B     		ldr	r3, .L61
 733 01ea 5A61     		str	r2, [r3, #20]
 215:main.c        ****         morsecode[2]=taah;
 734              		.loc 1 215 0
 735 01ec 0968     		ldr	r1, [r1]
 736 01ee 9961     		str	r1, [r3, #24]
 216:main.c        ****         morsecode[3]=taah;
 737              		.loc 1 216 0
 738 01f0 DA61     		str	r2, [r3, #28]
 217:main.c        ****     }
 739              		.loc 1 217 0
 740 01f2 1A62     		str	r2, [r3, #32]
 741 01f4 7047     		bx	lr
 742              	.L60:
 219:main.c        ****         morsecode[0]=taah;
 743              		.loc 1 219 0
 744 01f6 7A28     		cmp	r0, #122
 745 01f8 07D1     		bne	.L34
 220:main.c        ****         morsecode[1]=taah;
 746              		.loc 1 220 0
 747 01fa 054A     		ldr	r2, .L61+4
 748 01fc 5168     		ldr	r1, [r2, #4]
 749 01fe 034B     		ldr	r3, .L61
 750 0200 5961     		str	r1, [r3, #20]
 221:main.c        ****         morsecode[2]=ti;
 751              		.loc 1 221 0
 752 0202 9961     		str	r1, [r3, #24]
 222:main.c        ****         morsecode[3]=ti;
 753              		.loc 1 222 0
 754 0204 1268     		ldr	r2, [r2]
 755 0206 DA61     		str	r2, [r3, #28]
 223:main.c        ****     }
 756              		.loc 1 223 0
 757 0208 1A62     		str	r2, [r3, #32]
ARM GAS  C:\Users\karam\AppData\Local\Temp\cclRBQQI.s 			page 23


 758              	.L34:
 759 020a 7047     		bx	lr
 760              	.L62:
 761              		.align	2
 762              	.L61:
 763 020c 00000000 		.word	.LANCHOR0
 764 0210 00000000 		.word	.LANCHOR1
 765              		.cfi_endproc
 766              	.LFE65:
 767              		.size	morse, .-morse
 768              		.section	.text.modifymorsecode,"ax",%progbits
 769              		.align	2
 770              		.global	modifymorsecode
 771              		.thumb
 772              		.thumb_func
 773              		.type	modifymorsecode, %function
 774              	modifymorsecode:
 775              	.LFB66:
 226:main.c        ****     morse(letter);
 776              		.loc 1 226 0
 777              		.cfi_startproc
 778              		@ args = 0, pretend = 0, frame = 0
 779              		@ frame_needed = 0, uses_anonymous_args = 0
 780              	.LVL31:
 781 0000 10B5     		push	{r4, lr}
 782              		.cfi_def_cfa_offset 8
 783              		.cfi_offset 4, -8
 784              		.cfi_offset 14, -4
 227:main.c        ****     morsecode[1]+=morsecode[0];
 785              		.loc 1 227 0
 786 0002 FFF7FEFF 		bl	morse
 787              	.LVL32:
 228:main.c        ****     morsecode[2]+=morsecode[1];
 788              		.loc 1 228 0
 789 0006 114B     		ldr	r3, .L69
 790 0008 5C69     		ldr	r4, [r3, #20]
 791 000a 9A69     		ldr	r2, [r3, #24]
 792 000c 2244     		add	r2, r2, r4
 793 000e 9A61     		str	r2, [r3, #24]
 229:main.c        ****     morsecode[3]+=morsecode[2];
 794              		.loc 1 229 0
 795 0010 D969     		ldr	r1, [r3, #28]
 796 0012 1144     		add	r1, r1, r2
 797 0014 D961     		str	r1, [r3, #28]
 230:main.c        ****     if (morsecode[1]<=morsecode[0]){    morsetottimespace=0;
 798              		.loc 1 230 0
 799 0016 186A     		ldr	r0, [r3, #32]
 800 0018 0844     		add	r0, r0, r1
 801 001a 1862     		str	r0, [r3, #32]
 231:main.c        ****     }else if(morsecode[2]<=morsecode[1]){   morsetottimespace=5000;
 802              		.loc 1 231 0
 803 001c 9442     		cmp	r4, r2
 804 001e 02DB     		blt	.L64
 231:main.c        ****     }else if(morsecode[2]<=morsecode[1]){   morsetottimespace=5000;
 805              		.loc 1 231 0 is_stmt 0 discriminator 1
 806 0020 0022     		movs	r2, #0
 807 0022 5A62     		str	r2, [r3, #36]
ARM GAS  C:\Users\karam\AppData\Local\Temp\cclRBQQI.s 			page 24


 808 0024 10BD     		pop	{r4, pc}
 809              	.L64:
 232:main.c        ****     }else if(morsecode[3]<=morsecode[2]){   morsetottimespace=10000;
 810              		.loc 1 232 0 is_stmt 1
 811 0026 8A42     		cmp	r2, r1
 812 0028 04DB     		blt	.L66
 232:main.c        ****     }else if(morsecode[3]<=morsecode[2]){   morsetottimespace=10000;
 813              		.loc 1 232 0 is_stmt 0 discriminator 1
 814 002a 41F28832 		movw	r2, #5000
 815 002e 074B     		ldr	r3, .L69
 816 0030 5A62     		str	r2, [r3, #36]
 817 0032 10BD     		pop	{r4, pc}
 818              	.L66:
 233:main.c        ****     }else { morsetottimespace=15000;}
 819              		.loc 1 233 0 is_stmt 1
 820 0034 8142     		cmp	r1, r0
 821 0036 04DB     		blt	.L67
 233:main.c        ****     }else { morsetottimespace=15000;}
 822              		.loc 1 233 0 is_stmt 0 discriminator 1
 823 0038 42F21072 		movw	r2, #10000
 824 003c 034B     		ldr	r3, .L69
 825 003e 5A62     		str	r2, [r3, #36]
 826 0040 10BD     		pop	{r4, pc}
 827              	.L67:
 234:main.c        **** }
 828              		.loc 1 234 0 is_stmt 1
 829 0042 43F69822 		movw	r2, #15000
 830 0046 014B     		ldr	r3, .L69
 831 0048 5A62     		str	r2, [r3, #36]
 832 004a 10BD     		pop	{r4, pc}
 833              	.L70:
 834              		.align	2
 835              	.L69:
 836 004c 00000000 		.word	.LANCHOR0
 837              		.cfi_endproc
 838              	.LFE66:
 839              		.size	modifymorsecode, .-modifymorsecode
 840              		.global	__aeabi_ddiv
 841              		.global	__aeabi_dadd
 842              		.global	__aeabi_d2iz
 843              		.section	.text.MORSE,"ax",%progbits
 844              		.align	2
 845              		.global	MORSE
 846              		.thumb
 847              		.thumb_func
 848              		.type	MORSE, %function
 849              	MORSE:
 850              	.LFB67:
 237:main.c        ****     if (begin){
 851              		.loc 1 237 0
 852              		.cfi_startproc
 853              		@ args = 0, pretend = 0, frame = 0
 854              		@ frame_needed = 0, uses_anonymous_args = 0
 855 0000 38B5     		push	{r3, r4, r5, lr}
 856              		.cfi_def_cfa_offset 16
 857              		.cfi_offset 3, -16
 858              		.cfi_offset 4, -12
ARM GAS  C:\Users\karam\AppData\Local\Temp\cclRBQQI.s 			page 25


 859              		.cfi_offset 5, -8
 860              		.cfi_offset 14, -4
 238:main.c        ****         modifymorsecode(mot[morseint]);
 861              		.loc 1 238 0
 862 0002 814B     		ldr	r3, .L91+8
 863 0004 1B7A     		ldrb	r3, [r3, #8]	@ zero_extendqisi2
 864 0006 002B     		cmp	r3, #0
 865 0008 00F09480 		beq	.L72
 239:main.c        ****         if(morsecode[0]==ti) UART_PutChar('.');
 866              		.loc 1 239 0
 867 000c 7F4C     		ldr	r4, .L91+12
 868 000e 804B     		ldr	r3, .L91+16
 869 0010 1A68     		ldr	r2, [r3]
 870 0012 A36A     		ldr	r3, [r4, #40]
 871 0014 D05C     		ldrb	r0, [r2, r3]	@ zero_extendqisi2
 872 0016 FFF7FEFF 		bl	modifymorsecode
 873              	.LVL33:
 240:main.c        ****         if(morsecode[0]==taah) UART_PutChar('-');
 874              		.loc 1 240 0
 875 001a 6269     		ldr	r2, [r4, #20]
 876 001c 7A4B     		ldr	r3, .L91+8
 877 001e 1B68     		ldr	r3, [r3]
 878 0020 9A42     		cmp	r2, r3
 879 0022 02D1     		bne	.L73
 240:main.c        ****         if(morsecode[0]==taah) UART_PutChar('-');
 880              		.loc 1 240 0 is_stmt 0 discriminator 1
 881 0024 2E20     		movs	r0, #46
 882 0026 FFF7FEFF 		bl	UART_PutChar
 883              	.LVL34:
 884              	.L73:
 241:main.c        ****         if(morsecode[1]-morsecode[0]==ti) UART_PutChar('.');
 885              		.loc 1 241 0 is_stmt 1
 886 002a 784B     		ldr	r3, .L91+12
 887 002c 5A69     		ldr	r2, [r3, #20]
 888 002e 764B     		ldr	r3, .L91+8
 889 0030 5B68     		ldr	r3, [r3, #4]
 890 0032 9A42     		cmp	r2, r3
 891 0034 02D1     		bne	.L74
 241:main.c        ****         if(morsecode[1]-morsecode[0]==ti) UART_PutChar('.');
 892              		.loc 1 241 0 is_stmt 0 discriminator 1
 893 0036 2D20     		movs	r0, #45
 894 0038 FFF7FEFF 		bl	UART_PutChar
 895              	.LVL35:
 896              	.L74:
 242:main.c        ****         if(morsecode[1]-morsecode[0]==taah) UART_PutChar('-');
 897              		.loc 1 242 0 is_stmt 1
 898 003c 734A     		ldr	r2, .L91+12
 899 003e 9369     		ldr	r3, [r2, #24]
 900 0040 5269     		ldr	r2, [r2, #20]
 901 0042 9B1A     		subs	r3, r3, r2
 902 0044 704A     		ldr	r2, .L91+8
 903 0046 1268     		ldr	r2, [r2]
 904 0048 9342     		cmp	r3, r2
 905 004a 02D1     		bne	.L75
 242:main.c        ****         if(morsecode[1]-morsecode[0]==taah) UART_PutChar('-');
 906              		.loc 1 242 0 is_stmt 0 discriminator 1
 907 004c 2E20     		movs	r0, #46
ARM GAS  C:\Users\karam\AppData\Local\Temp\cclRBQQI.s 			page 26


 908 004e FFF7FEFF 		bl	UART_PutChar
 909              	.LVL36:
 910              	.L75:
 243:main.c        ****         if(morsecode[2]-morsecode[1]==ti) UART_PutChar('.');
 911              		.loc 1 243 0 is_stmt 1
 912 0052 6E4A     		ldr	r2, .L91+12
 913 0054 9369     		ldr	r3, [r2, #24]
 914 0056 5269     		ldr	r2, [r2, #20]
 915 0058 9B1A     		subs	r3, r3, r2
 916 005a 6B4A     		ldr	r2, .L91+8
 917 005c 5268     		ldr	r2, [r2, #4]
 918 005e 9342     		cmp	r3, r2
 919 0060 02D1     		bne	.L76
 243:main.c        ****         if(morsecode[2]-morsecode[1]==ti) UART_PutChar('.');
 920              		.loc 1 243 0 is_stmt 0 discriminator 1
 921 0062 2D20     		movs	r0, #45
 922 0064 FFF7FEFF 		bl	UART_PutChar
 923              	.LVL37:
 924              	.L76:
 244:main.c        ****         if(morsecode[2]-morsecode[1]==taah) UART_PutChar('-');
 925              		.loc 1 244 0 is_stmt 1
 926 0068 684A     		ldr	r2, .L91+12
 927 006a D369     		ldr	r3, [r2, #28]
 928 006c 9269     		ldr	r2, [r2, #24]
 929 006e 9B1A     		subs	r3, r3, r2
 930 0070 654A     		ldr	r2, .L91+8
 931 0072 1268     		ldr	r2, [r2]
 932 0074 9342     		cmp	r3, r2
 933 0076 02D1     		bne	.L77
 244:main.c        ****         if(morsecode[2]-morsecode[1]==taah) UART_PutChar('-');
 934              		.loc 1 244 0 is_stmt 0 discriminator 1
 935 0078 2E20     		movs	r0, #46
 936 007a FFF7FEFF 		bl	UART_PutChar
 937              	.LVL38:
 938              	.L77:
 245:main.c        ****         if(morsecode[3]-morsecode[2]==ti) UART_PutChar('.');
 939              		.loc 1 245 0 is_stmt 1
 940 007e 634A     		ldr	r2, .L91+12
 941 0080 D369     		ldr	r3, [r2, #28]
 942 0082 9269     		ldr	r2, [r2, #24]
 943 0084 9B1A     		subs	r3, r3, r2
 944 0086 604A     		ldr	r2, .L91+8
 945 0088 5268     		ldr	r2, [r2, #4]
 946 008a 9342     		cmp	r3, r2
 947 008c 02D1     		bne	.L78
 245:main.c        ****         if(morsecode[3]-morsecode[2]==ti) UART_PutChar('.');
 948              		.loc 1 245 0 is_stmt 0 discriminator 1
 949 008e 2D20     		movs	r0, #45
 950 0090 FFF7FEFF 		bl	UART_PutChar
 951              	.LVL39:
 952              	.L78:
 246:main.c        ****         if(morsecode[3]-morsecode[2]==taah) UART_PutChar('-');
 953              		.loc 1 246 0 is_stmt 1
 954 0094 5D4A     		ldr	r2, .L91+12
 955 0096 136A     		ldr	r3, [r2, #32]
 956 0098 D269     		ldr	r2, [r2, #28]
 957 009a 9B1A     		subs	r3, r3, r2
ARM GAS  C:\Users\karam\AppData\Local\Temp\cclRBQQI.s 			page 27


 958 009c 5A4A     		ldr	r2, .L91+8
 959 009e 1268     		ldr	r2, [r2]
 960 00a0 9342     		cmp	r3, r2
 961 00a2 02D1     		bne	.L79
 246:main.c        ****         if(morsecode[3]-morsecode[2]==taah) UART_PutChar('-');
 962              		.loc 1 246 0 is_stmt 0 discriminator 1
 963 00a4 2E20     		movs	r0, #46
 964 00a6 FFF7FEFF 		bl	UART_PutChar
 965              	.LVL40:
 966              	.L79:
 247:main.c        ****         UART_PutChar(' ');
 967              		.loc 1 247 0 is_stmt 1
 968 00aa 584A     		ldr	r2, .L91+12
 969 00ac 136A     		ldr	r3, [r2, #32]
 970 00ae D269     		ldr	r2, [r2, #28]
 971 00b0 9B1A     		subs	r3, r3, r2
 972 00b2 554A     		ldr	r2, .L91+8
 973 00b4 5268     		ldr	r2, [r2, #4]
 974 00b6 9342     		cmp	r3, r2
 975 00b8 02D1     		bne	.L80
 247:main.c        ****         UART_PutChar(' ');
 976              		.loc 1 247 0 is_stmt 0 discriminator 1
 977 00ba 2D20     		movs	r0, #45
 978 00bc FFF7FEFF 		bl	UART_PutChar
 979              	.LVL41:
 980              	.L80:
 248:main.c        ****         
 981              		.loc 1 248 0 is_stmt 1
 982 00c0 2020     		movs	r0, #32
 983 00c2 FFF7FEFF 		bl	UART_PutChar
 984              	.LVL42:
 985              	.LBB2:
 251:main.c        ****                 if (semaphore_alphabet[ba].let==mot[morseint]){
 986              		.loc 1 251 0
 987 00c6 0024     		movs	r4, #0
 988 00c8 32E0     		b	.L81
 989              	.LVL43:
 990              	.L83:
 252:main.c        ****                     PWM_1_WriteCompare2((int)((semaphore_alphabet[ba].num/1.8)+26));
 991              		.loc 1 252 0
 992 00ca 04EB4402 		add	r2, r4, r4, lsl #1
 993 00ce D300     		lsls	r3, r2, #3
 994 00d0 4D4A     		ldr	r2, .L91+8
 995 00d2 1344     		add	r3, r3, r2
 996 00d4 1A7C     		ldrb	r2, [r3, #16]	@ zero_extendqisi2
 997 00d6 4E4B     		ldr	r3, .L91+16
 998 00d8 1968     		ldr	r1, [r3]
 999 00da 4C4B     		ldr	r3, .L91+12
 1000 00dc 9B6A     		ldr	r3, [r3, #40]
 1001 00de CB5C     		ldrb	r3, [r1, r3]	@ zero_extendqisi2
 1002 00e0 9A42     		cmp	r2, r3
 1003 00e2 24D1     		bne	.L82
 253:main.c        ****                     PWM_1_WriteCompare1((int)((semaphore_alphabet[ba].num1/1.8)+26));
 1004              		.loc 1 253 0
 1005 00e4 6200     		lsls	r2, r4, #1
 1006 00e6 2244     		add	r2, r2, r4
 1007 00e8 D300     		lsls	r3, r2, #3
ARM GAS  C:\Users\karam\AppData\Local\Temp\cclRBQQI.s 			page 28


 1008 00ea 474D     		ldr	r5, .L91+8
 1009 00ec 1D44     		add	r5, r5, r3
 1010 00ee 44A3     		adr	r3, .L91
 1011 00f0 D3E90023 		ldrd	r2, [r3]
 1012 00f4 D5E90601 		ldrd	r0, [r5, #24]
 1013 00f8 FFF7FEFF 		bl	__aeabi_ddiv
 1014              	.LVL44:
 1015 00fc 0022     		movs	r2, #0
 1016 00fe 454B     		ldr	r3, .L91+20
 1017 0100 FFF7FEFF 		bl	__aeabi_dadd
 1018              	.LVL45:
 1019 0104 FFF7FEFF 		bl	__aeabi_d2iz
 1020              	.LVL46:
 1021 0108 80B2     		uxth	r0, r0
 1022 010a FFF7FEFF 		bl	PWM_1_WriteCompare2
 1023              	.LVL47:
 254:main.c        ****                 }
 1024              		.loc 1 254 0
 1025 010e 3CA3     		adr	r3, .L91
 1026 0110 D3E90023 		ldrd	r2, [r3]
 1027 0114 D5E90801 		ldrd	r0, [r5, #32]
 1028 0118 FFF7FEFF 		bl	__aeabi_ddiv
 1029              	.LVL48:
 1030 011c 0022     		movs	r2, #0
 1031 011e 3D4B     		ldr	r3, .L91+20
 1032 0120 FFF7FEFF 		bl	__aeabi_dadd
 1033              	.LVL49:
 1034 0124 FFF7FEFF 		bl	__aeabi_d2iz
 1035              	.LVL50:
 1036 0128 80B2     		uxth	r0, r0
 1037 012a FFF7FEFF 		bl	PWM_1_WriteCompare1
 1038              	.LVL51:
 1039              	.L82:
 251:main.c        ****                 if (semaphore_alphabet[ba].let==mot[morseint]){
 1040              		.loc 1 251 0 discriminator 2
 1041 012e 0134     		adds	r4, r4, #1
 1042              	.LVL52:
 1043              	.L81:
 251:main.c        ****                 if (semaphore_alphabet[ba].let==mot[morseint]){
 1044              		.loc 1 251 0 is_stmt 0 discriminator 1
 1045 0130 192C     		cmp	r4, #25
 1046 0132 CADD     		ble	.L83
 1047              	.LVL53:
 1048              	.L72:
 1049              	.LBE2:
 260:main.c        ****     
 1050              		.loc 1 260 0 is_stmt 1
 1051 0134 0022     		movs	r2, #0
 1052 0136 344B     		ldr	r3, .L91+8
 1053 0138 1A72     		strb	r2, [r3, #8]
 262:main.c        ****         Timer_ReadStatusRegister();
 1054              		.loc 1 262 0
 1055 013a 3449     		ldr	r1, .L91+12
 1056 013c 086A     		ldr	r0, [r1, #32]
 1057 013e 4B6A     		ldr	r3, [r1, #36]
 1058 0140 C218     		adds	r2, r0, r3
 1059 0142 CB6A     		ldr	r3, [r1, #44]
ARM GAS  C:\Users\karam\AppData\Local\Temp\cclRBQQI.s 			page 29


 1060 0144 9A42     		cmp	r2, r3
 1061 0146 26DA     		bge	.L84
 263:main.c        ****         if(countTime>morsetottimespace+morsecode[3]+20000){
 1062              		.loc 1 263 0
 1063 0148 FFF7FEFF 		bl	Timer_ReadStatusRegister
 1064              	.LVL54:
 264:main.c        ****             begin=1;
 1065              		.loc 1 264 0
 1066 014c 2F4A     		ldr	r2, .L91+12
 1067 014e 116A     		ldr	r1, [r2, #32]
 1068 0150 536A     		ldr	r3, [r2, #36]
 1069 0152 0B44     		add	r3, r3, r1
 1070 0154 03F59C43 		add	r3, r3, #19968
 1071 0158 2033     		adds	r3, r3, #32
 1072 015a D26A     		ldr	r2, [r2, #44]
 1073 015c 9342     		cmp	r3, r2
 1074 015e 49DA     		bge	.L85
 265:main.c        ****             countTime=0;
 1075              		.loc 1 265 0
 1076 0160 0122     		movs	r2, #1
 1077 0162 294B     		ldr	r3, .L91+8
 1078 0164 1A72     		strb	r2, [r3, #8]
 266:main.c        ****             morseint++;
 1079              		.loc 1 266 0
 1080 0166 294B     		ldr	r3, .L91+12
 1081 0168 0022     		movs	r2, #0
 1082 016a DA62     		str	r2, [r3, #44]
 267:main.c        ****             if(strlen(mot)==(morseint)){
 1083              		.loc 1 267 0
 1084 016c 9C6A     		ldr	r4, [r3, #40]
 1085 016e 0134     		adds	r4, r4, #1
 1086 0170 9C62     		str	r4, [r3, #40]
 268:main.c        ****                 morseint=0;
 1087              		.loc 1 268 0
 1088 0172 274B     		ldr	r3, .L91+16
 1089 0174 1868     		ldr	r0, [r3]
 1090 0176 FFF7FEFF 		bl	strlen
 1091              	.LVL55:
 1092 017a A042     		cmp	r0, r4
 1093 017c 3AD1     		bne	.L85
 269:main.c        ****                 rxend=1;
 1094              		.loc 1 269 0
 1095 017e 234B     		ldr	r3, .L91+12
 1096 0180 0022     		movs	r2, #0
 1097 0182 9A62     		str	r2, [r3, #40]
 270:main.c        ****                 UART_PutChar('\n');
 1098              		.loc 1 270 0
 1099 0184 0122     		movs	r2, #1
 1100 0186 83F83020 		strb	r2, [r3, #48]
 271:main.c        ****                 //memset(formmot, 0, strlen(formmot));
 1101              		.loc 1 271 0
 1102 018a 0A20     		movs	r0, #10
 1103 018c FFF7FEFF 		bl	UART_PutChar
 1104              	.LVL56:
 273:main.c        ****             }
 1105              		.loc 1 273 0
 1106 0190 FFF7FEFF 		bl	interrupt_Stop
ARM GAS  C:\Users\karam\AppData\Local\Temp\cclRBQQI.s 			page 30


 1107              	.LVL57:
 1108 0194 2EE0     		b	.L85
 1109              	.L84:
 278:main.c        ****             soundPlay();
 1110              		.loc 1 278 0
 1111 0196 1D4A     		ldr	r2, .L91+12
 1112 0198 5269     		ldr	r2, [r2, #20]
 1113 019a 9342     		cmp	r3, r2
 1114 019c 25DB     		blt	.L86
 278:main.c        ****             soundPlay();
 1115              		.loc 1 278 0 is_stmt 0 discriminator 1
 1116 019e 02F59C52 		add	r2, r2, #4992
 1117 01a2 0832     		adds	r2, r2, #8
 1118 01a4 9342     		cmp	r3, r2
 1119 01a6 06DD     		ble	.L87
 278:main.c        ****             soundPlay();
 1120              		.loc 1 278 0 discriminator 2
 1121 01a8 184A     		ldr	r2, .L91+12
 1122 01aa 9269     		ldr	r2, [r2, #24]
 1123 01ac 02F59C52 		add	r2, r2, #4992
 1124 01b0 0832     		adds	r2, r2, #8
 1125 01b2 9342     		cmp	r3, r2
 1126 01b4 19DB     		blt	.L86
 1127              	.L87:
 278:main.c        ****             soundPlay();
 1128              		.loc 1 278 0 discriminator 4
 1129 01b6 154A     		ldr	r2, .L91+12
 1130 01b8 9269     		ldr	r2, [r2, #24]
 1131 01ba 02F51C52 		add	r2, r2, #9984
 1132 01be 1032     		adds	r2, r2, #16
 1133 01c0 9342     		cmp	r3, r2
 1134 01c2 06DD     		ble	.L88
 278:main.c        ****             soundPlay();
 1135              		.loc 1 278 0 discriminator 5
 1136 01c4 114A     		ldr	r2, .L91+12
 1137 01c6 D269     		ldr	r2, [r2, #28]
 1138 01c8 02F51C52 		add	r2, r2, #9984
 1139 01cc 1032     		adds	r2, r2, #16
 1140 01ce 9342     		cmp	r3, r2
 1141 01d0 0BDB     		blt	.L86
 1142              	.L88:
 278:main.c        ****             soundPlay();
 1143              		.loc 1 278 0 discriminator 7
 1144 01d2 0E4A     		ldr	r2, .L91+12
 1145 01d4 D269     		ldr	r2, [r2, #28]
 1146 01d6 02F56A52 		add	r2, r2, #14976
 1147 01da 1832     		adds	r2, r2, #24
 1148 01dc 9342     		cmp	r3, r2
 1149 01de 07DD     		ble	.L89
 278:main.c        ****             soundPlay();
 1150              		.loc 1 278 0 discriminator 8
 1151 01e0 00F56A50 		add	r0, r0, #14976
 1152 01e4 1830     		adds	r0, r0, #24
 1153 01e6 8342     		cmp	r3, r0
 1154 01e8 02DA     		bge	.L89
 1155              	.L86:
 279:main.c        ****         }
ARM GAS  C:\Users\karam\AppData\Local\Temp\cclRBQQI.s 			page 31


 1156              		.loc 1 279 0 is_stmt 1
 1157 01ea FFF7FEFF 		bl	soundPlay
 1158              	.LVL58:
 1159 01ee 01E0     		b	.L85
 1160              	.L89:
 282:main.c        ****         }       
 1161              		.loc 1 282 0
 1162 01f0 FFF7FEFF 		bl	Timer_ReadStatusRegister
 1163              	.LVL59:
 1164              	.L85:
 285:main.c        **** }
 1165              		.loc 1 285 0
 1166 01f4 054A     		ldr	r2, .L91+12
 1167 01f6 D36A     		ldr	r3, [r2, #44]
 1168 01f8 0133     		adds	r3, r3, #1
 1169 01fa D362     		str	r3, [r2, #44]
 1170 01fc 38BD     		pop	{r3, r4, r5, pc}
 1171              	.L92:
 1172 01fe 00BF     		.align	3
 1173              	.L91:
 1174 0200 CDCCCCCC 		.word	-858993459
 1175 0204 CCCCFC3F 		.word	1073532108
 1176 0208 00000000 		.word	.LANCHOR1
 1177 020c 00000000 		.word	.LANCHOR0
 1178 0210 00000000 		.word	mot
 1179 0214 00003A40 		.word	1077542912
 1180              		.cfi_endproc
 1181              	.LFE67:
 1182              		.size	MORSE, .-MORSE
 1183              		.section	.text.SW4_Handler,"ax",%progbits
 1184              		.align	2
 1185              		.global	SW4_Handler
 1186              		.thumb
 1187              		.thumb_func
 1188              		.type	SW4_Handler, %function
 1189              	SW4_Handler:
 1190              	.LFB71:
 320:main.c        ****     soundPlay();
 1191              		.loc 1 320 0
 1192              		.cfi_startproc
 1193              		@ args = 0, pretend = 0, frame = 0
 1194              		@ frame_needed = 0, uses_anonymous_args = 0
 1195 0000 08B5     		push	{r3, lr}
 1196              		.cfi_def_cfa_offset 8
 1197              		.cfi_offset 3, -8
 1198              		.cfi_offset 14, -4
 321:main.c        ****     if (!SW1_Read()){
 1199              		.loc 1 321 0
 1200 0002 FFF7FEFF 		bl	soundPlay
 1201              	.LVL60:
 322:main.c        ****         pinsWrite(0);
 1202              		.loc 1 322 0
 1203 0006 FFF7FEFF 		bl	SW1_Read
 1204              	.LVL61:
 1205 000a 18B9     		cbnz	r0, .L93
 323:main.c        ****         interrupt_Stop();
 1206              		.loc 1 323 0
ARM GAS  C:\Users\karam\AppData\Local\Temp\cclRBQQI.s 			page 32


 1207 000c FFF7FEFF 		bl	pinsWrite
 1208              	.LVL62:
 324:main.c        ****     }
 1209              		.loc 1 324 0
 1210 0010 FFF7FEFF 		bl	interrupt_Stop
 1211              	.LVL63:
 1212              	.L93:
 1213 0014 08BD     		pop	{r3, pc}
 1214              		.cfi_endproc
 1215              	.LFE71:
 1216              		.size	SW4_Handler, .-SW4_Handler
 1217              		.global	__aeabi_i2d
 1218              		.global	__aeabi_dmul
 1219              		.global	__aeabi_d2f
 1220 0016 00BF     		.section	.text.main,"ax",%progbits
 1221              		.align	2
 1222              		.global	main
 1223              		.thumb
 1224              		.thumb_func
 1225              		.type	main, %function
 1226              	main:
 1227              	.LFB73:
 353:main.c        **** 
 354:main.c        **** int main(void)
 355:main.c        **** {
 1228              		.loc 1 355 0
 1229              		.cfi_startproc
 1230              		@ args = 0, pretend = 0, frame = 0
 1231              		@ frame_needed = 0, uses_anonymous_args = 0
 1232 0000 38B5     		push	{r3, r4, r5, lr}
 1233              		.cfi_def_cfa_offset 16
 1234              		.cfi_offset 3, -16
 1235              		.cfi_offset 4, -12
 1236              		.cfi_offset 5, -8
 1237              		.cfi_offset 14, -4
 356:main.c        ****     isr_StartEx(uart_rx_Handler);
 1238              		.loc 1 356 0
 1239 0002 8948     		ldr	r0, .L121+16
 1240 0004 FFF7FEFF 		bl	isr_StartEx
 1241              	.LVL64:
 357:main.c        ****     CyGlobalIntEnable; /* Enable global interrupts. */
 1242              		.loc 1 357 0
 1243              		.syntax unified
 1244              	@ 357 "main.c" 1
 1245 0008 62B6     		CPSIE   i
 1246              	@ 0 "" 2
 1247              	.LVL65:
 1248              		.thumb
 1249              		.syntax unified
 1250              	.LBB3:
 358:main.c        ****     for(int i=0; i<=99; i++){
 1251              		.loc 1 358 0
 1252 000a 0024     		movs	r4, #0
 1253 000c 17E0     		b	.L97
 1254              	.LVL66:
 1255              	.L98:
 359:main.c        ****        vec[i]= sin(i*2*3.14159265/50)+1;
ARM GAS  C:\Users\karam\AppData\Local\Temp\cclRBQQI.s 			page 33


 1256              		.loc 1 359 0 discriminator 3
 1257 000e 6000     		lsls	r0, r4, #1
 1258 0010 FFF7FEFF 		bl	__aeabi_i2d
 1259              	.LVL67:
 1260 0014 80A3     		adr	r3, .L121
 1261 0016 D3E90023 		ldrd	r2, [r3]
 1262 001a FFF7FEFF 		bl	__aeabi_dmul
 1263              	.LVL68:
 1264 001e 0022     		movs	r2, #0
 1265 0020 824B     		ldr	r3, .L121+20
 1266 0022 FFF7FEFF 		bl	__aeabi_ddiv
 1267              	.LVL69:
 1268 0026 FFF7FEFF 		bl	sin
 1269              	.LVL70:
 1270 002a 0022     		movs	r2, #0
 1271 002c 804B     		ldr	r3, .L121+24
 1272 002e FFF7FEFF 		bl	__aeabi_dadd
 1273              	.LVL71:
 1274 0032 FFF7FEFF 		bl	__aeabi_d2f
 1275              	.LVL72:
 1276 0036 7F4B     		ldr	r3, .L121+28
 1277 0038 43F82400 		str	r0, [r3, r4, lsl #2]	@ float
 358:main.c        ****     for(int i=0; i<=99; i++){
 1278              		.loc 1 358 0 discriminator 3
 1279 003c 0134     		adds	r4, r4, #1
 1280              	.LVL73:
 1281              	.L97:
 358:main.c        ****     for(int i=0; i<=99; i++){
 1282              		.loc 1 358 0 is_stmt 0 discriminator 1
 1283 003e 632C     		cmp	r4, #99
 1284 0040 E5DD     		ble	.L98
 1285              	.LBE3:
 360:main.c        ****     }
 361:main.c        ****     /* Place your initialization/startup code here (e.g. MyInst_Start()) */
 362:main.c        ****     LCD_Start();
 1286              		.loc 1 362 0 is_stmt 1
 1287 0042 FFF7FEFF 		bl	LCD_Start
 1288              	.LVL74:
 363:main.c        ****     LCD_ClearDisplay();
 1289              		.loc 1 363 0
 1290 0046 0120     		movs	r0, #1
 1291 0048 FFF7FEFF 		bl	LCD_WriteControl
 1292              	.LVL75:
 364:main.c        ****     //_Bool allum=1;
 365:main.c        ****     keypadInit();
 1293              		.loc 1 365 0
 1294 004c FFF7FEFF 		bl	keypadInit
 1295              	.LVL76:
 366:main.c        ****     Timer_Start();
 1296              		.loc 1 366 0
 1297 0050 FFF7FEFF 		bl	Timer_Start
 1298              	.LVL77:
 367:main.c        ****     VDAC8_1_Start();
 1299              		.loc 1 367 0
 1300 0054 FFF7FEFF 		bl	VDAC8_1_Start
 1301              	.LVL78:
 368:main.c        ****     ADC_Start();
ARM GAS  C:\Users\karam\AppData\Local\Temp\cclRBQQI.s 			page 34


 1302              		.loc 1 368 0
 1303 0058 FFF7FEFF 		bl	ADC_Start
 1304              	.LVL79:
 369:main.c        ****     ADC_StartConvert();
 1305              		.loc 1 369 0
 1306 005c FFF7FEFF 		bl	ADC_StartConvert
 1307              	.LVL80:
 370:main.c        ****     PWM_1_Start();
 1308              		.loc 1 370 0
 1309 0060 FFF7FEFF 		bl	PWM_1_Start
 1310              	.LVL81:
 371:main.c        ****     AMux_1_Start();
 1311              		.loc 1 371 0
 1312 0064 FFF7FEFF 		bl	AMux_1_Start
 1313              	.LVL82:
 372:main.c        ****     UART_Start();
 1314              		.loc 1 372 0
 1315 0068 FFF7FEFF 		bl	UART_Start
 1316              	.LVL83:
 373:main.c        ****     int lcdcount=0;
 374:main.c        **** 
 375:main.c        ****     UART_PutString("Hello\n");
 1317              		.loc 1 375 0
 1318 006c 7248     		ldr	r0, .L121+32
 1319 006e FFF7FEFF 		bl	UART_PutString
 1320              	.LVL84:
 376:main.c        ****     UART_GetChar();
 1321              		.loc 1 376 0
 1322 0072 FFF7FEFF 		bl	UART_GetChar
 1323              	.LVL85:
 373:main.c        ****     int lcdcount=0;
 1324              		.loc 1 373 0
 1325 0076 0025     		movs	r5, #0
 1326              	.LVL86:
 1327              	.L99:
 1328              	.LBB4:
 377:main.c        ****     for(;;)
 378:main.c        ****     {
 379:main.c        ****         if(rxbegin){
 1329              		.loc 1 379 0
 1330 0078 704B     		ldr	r3, .L121+36
 1331 007a 1B79     		ldrb	r3, [r3, #4]	@ zero_extendqisi2
 1332 007c 43B1     		cbz	r3, .L100
 380:main.c        ****             
 381:main.c        ****             rxbegin=0;
 1333              		.loc 1 381 0
 1334 007e 0022     		movs	r2, #0
 1335 0080 6E4B     		ldr	r3, .L121+36
 1336 0082 1A71     		strb	r2, [r3, #4]
 382:main.c        ****             mot=formmot;
 1337              		.loc 1 382 0
 1338 0084 6E4A     		ldr	r2, .L121+40
 1339 0086 6F4B     		ldr	r3, .L121+44
 1340 0088 1A60     		str	r2, [r3]
 383:main.c        ****             interrupt_StartEx(MORSE);
 1341              		.loc 1 383 0
 1342 008a 6F48     		ldr	r0, .L121+48
ARM GAS  C:\Users\karam\AppData\Local\Temp\cclRBQQI.s 			page 35


 1343 008c FFF7FEFF 		bl	interrupt_StartEx
 1344              	.LVL87:
 1345              	.L100:
 384:main.c        ****         }
 385:main.c        ****         if(rxend){
 1346              		.loc 1 385 0
 1347 0090 6A4B     		ldr	r3, .L121+36
 1348 0092 93F83030 		ldrb	r3, [r3, #48]	@ zero_extendqisi2
 1349 0096 33B9     		cbnz	r3, .L101
 1350 0098 0DE0     		b	.L102
 1351              	.L103:
 386:main.c        ****             while (k>0){
 387:main.c        ****             formmot[k]=_NULL;
 1352              		.loc 1 387 0
 1353 009a 0021     		movs	r1, #0
 1354 009c 684A     		ldr	r2, .L121+40
 1355 009e D154     		strb	r1, [r2, r3]
 388:main.c        ****             k--;
 1356              		.loc 1 388 0
 1357 00a0 013B     		subs	r3, r3, #1
 1358 00a2 664A     		ldr	r2, .L121+36
 1359 00a4 1360     		str	r3, [r2]
 1360              	.L101:
 386:main.c        ****             while (k>0){
 1361              		.loc 1 386 0
 1362 00a6 654B     		ldr	r3, .L121+36
 1363 00a8 1B68     		ldr	r3, [r3]
 1364 00aa 002B     		cmp	r3, #0
 1365 00ac F5DC     		bgt	.L103
 389:main.c        ****             }
 390:main.c        ****             rxend=0;
 1366              		.loc 1 390 0
 1367 00ae 0022     		movs	r2, #0
 1368 00b0 624B     		ldr	r3, .L121+36
 1369 00b2 83F83020 		strb	r2, [r3, #48]
 1370              	.L102:
 391:main.c        ****         }
 392:main.c        ****         
 393:main.c        ****         if(keypadScan() != 'z'){
 1371              		.loc 1 393 0
 1372 00b6 FFF7FEFF 		bl	keypadScan
 1373              	.LVL88:
 1374 00ba 7A28     		cmp	r0, #122
 1375 00bc 29D0     		beq	.L104
 1376              	.LBB5:
 394:main.c        ****             char keypad=keypadScan();
 1377              		.loc 1 394 0
 1378 00be FFF7FEFF 		bl	keypadScan
 1379              	.LVL89:
 1380 00c2 0446     		mov	r4, r0
 1381              	.LVL90:
 395:main.c        ****             if(keypad == '*'){
 1382              		.loc 1 395 0
 1383 00c4 2A28     		cmp	r0, #42
 1384 00c6 06D1     		bne	.L105
 396:main.c        ****                 mot="alexis";
 1385              		.loc 1 396 0
ARM GAS  C:\Users\karam\AppData\Local\Temp\cclRBQQI.s 			page 36


 1386 00c8 604A     		ldr	r2, .L121+52
 1387 00ca 5E4B     		ldr	r3, .L121+44
 1388 00cc 1A60     		str	r2, [r3]
 397:main.c        ****                 interrupt_StartEx(MORSE);
 1389              		.loc 1 397 0
 1390 00ce 5E48     		ldr	r0, .L121+48
 1391              	.LVL91:
 1392 00d0 FFF7FEFF 		bl	interrupt_StartEx
 1393              	.LVL92:
 1394 00d4 1DE0     		b	.L104
 1395              	.LVL93:
 1396              	.L105:
 398:main.c        ****             }
 399:main.c        ****             else if(keypad == '#'){
 1397              		.loc 1 399 0
 1398 00d6 2328     		cmp	r0, #35
 1399 00d8 06D1     		bne	.L106
 400:main.c        ****                 mot="arthur";
 1400              		.loc 1 400 0
 1401 00da 5D4A     		ldr	r2, .L121+56
 1402 00dc 594B     		ldr	r3, .L121+44
 1403 00de 1A60     		str	r2, [r3]
 401:main.c        ****                 interrupt_StartEx(MORSE);
 1404              		.loc 1 401 0
 1405 00e0 5948     		ldr	r0, .L121+48
 1406              	.LVL94:
 1407 00e2 FFF7FEFF 		bl	interrupt_StartEx
 1408              	.LVL95:
 1409 00e6 14E0     		b	.L104
 1410              	.LVL96:
 1411              	.L106:
 402:main.c        ****             }
 403:main.c        ****             else if(keypad!= 'z'){
 1412              		.loc 1 403 0
 1413 00e8 7A28     		cmp	r0, #122
 1414 00ea 12D0     		beq	.L104
 404:main.c        ****                 if(lcdcount==8){LCD_Position(1,0);}
 1415              		.loc 1 404 0
 1416 00ec 082D     		cmp	r5, #8
 1417 00ee 03D1     		bne	.L107
 1418              		.loc 1 404 0 is_stmt 0 discriminator 1
 1419 00f0 0021     		movs	r1, #0
 1420 00f2 0120     		movs	r0, #1
 1421              	.LVL97:
 1422 00f4 FFF7FEFF 		bl	LCD_Position
 1423              	.LVL98:
 1424              	.L107:
 405:main.c        ****                 if(lcdcount==16){LCD_Position(0,0);}
 1425              		.loc 1 405 0 is_stmt 1
 1426 00f8 102D     		cmp	r5, #16
 1427 00fa 03D1     		bne	.L108
 1428              		.loc 1 405 0 is_stmt 0 discriminator 1
 1429 00fc 0021     		movs	r1, #0
 1430 00fe 0846     		mov	r0, r1
 1431 0100 FFF7FEFF 		bl	LCD_Position
 1432              	.LVL99:
 1433              	.L108:
ARM GAS  C:\Users\karam\AppData\Local\Temp\cclRBQQI.s 			page 37


 406:main.c        ****                 lcdcount++;
 1434              		.loc 1 406 0 is_stmt 1
 1435 0104 0135     		adds	r5, r5, #1
 1436              	.LVL100:
 407:main.c        ****                 LCD_PutChar(keypad);
 1437              		.loc 1 407 0
 1438 0106 2046     		mov	r0, r4
 1439 0108 FFF7FEFF 		bl	LCD_PutChar
 1440              	.LVL101:
 408:main.c        ****                 CyDelay(80);
 1441              		.loc 1 408 0
 1442 010c 5020     		movs	r0, #80
 1443 010e FFF7FEFF 		bl	CyDelay
 1444              	.LVL102:
 1445              	.L104:
 1446              	.LBE5:
 409:main.c        ****             }
 410:main.c        ****         }
 411:main.c        ****         AMux_1_FastSelect(0);
 1447              		.loc 1 411 0
 1448 0112 0020     		movs	r0, #0
 1449 0114 FFF7FEFF 		bl	AMux_1_FastSelect
 1450              	.LVL103:
 412:main.c        ****         if(ADC_CountsTo_mVolts(ADC_Read32())<1000){
 1451              		.loc 1 412 0
 1452 0118 FFF7FEFF 		bl	ADC_Read32
 1453              	.LVL104:
 1454 011c FFF7FEFF 		bl	ADC_CountsTo_mVolts
 1455              	.LVL105:
 1456 0120 B0F57A7F 		cmp	r0, #1000
 1457 0124 03DA     		bge	.L109
 413:main.c        ****             light=0;
 1458              		.loc 1 413 0
 1459 0126 0022     		movs	r2, #0
 1460 0128 4A4B     		ldr	r3, .L121+60
 1461 012a 1A70     		strb	r2, [r3]
 1462 012c 02E0     		b	.L110
 1463              	.L109:
 414:main.c        ****         }
 415:main.c        ****         else{
 416:main.c        ****             light=1;
 1464              		.loc 1 416 0
 1465 012e 0122     		movs	r2, #1
 1466 0130 484B     		ldr	r3, .L121+60
 1467 0132 1A70     		strb	r2, [r3]
 1468              	.L110:
 417:main.c        ****         }
 418:main.c        ****         
 419:main.c        ****         /* 4.5
 420:main.c        ****         overflow=0x80 & Timer_ReadStatusRegister();
 421:main.c        ****         if(overflow){
 422:main.c        ****             count++;
 423:main.c        ****             if (count==1000){
 424:main.c        ****                 if(allum){
 425:main.c        ****                     Pin_4_Write(1);
 426:main.c        ****                 }
 427:main.c        ****                 if(!allum){
ARM GAS  C:\Users\karam\AppData\Local\Temp\cclRBQQI.s 			page 38


 428:main.c        ****                     Pin_4_Write(0);
 429:main.c        ****                 }
 430:main.c        ****                 allum=!allum;
 431:main.c        ****                 count=0;
 432:main.c        ****             }
 433:main.c        ****         }*/
 434:main.c        ****         /* 4.6
 435:main.c        ****         overflow=0x80 & Timer_ReadStatusRegister();
 436:main.c        ****         if(overflow){
 437:main.c        ****             if (count==99){
 438:main.c        ****                 count=0;
 439:main.c        ****             }
 440:main.c        ****             VDAC8_1_SetValue(vec[count]*128);
 441:main.c        ****             count++;
 442:main.c        ****         }
 443:main.c        ****         */
 444:main.c        ****         
 445:main.c        ****         //SW1 HANDLER
 446:main.c        ****         if(SW1_Read()){
 1469              		.loc 1 446 0
 1470 0134 FFF7FEFF 		bl	SW1_Read
 1471              	.LVL106:
 1472 0138 28B1     		cbz	r0, .L111
 447:main.c        ****             pinsWrite(1);
 1473              		.loc 1 447 0
 1474 013a 0120     		movs	r0, #1
 1475 013c FFF7FEFF 		bl	pinsWrite
 1476              	.LVL107:
 448:main.c        ****             interrupt_StartEx(SW1_Handler);
 1477              		.loc 1 448 0
 1478 0140 4548     		ldr	r0, .L121+64
 1479 0142 FFF7FEFF 		bl	interrupt_StartEx
 1480              	.LVL108:
 1481              	.L111:
 449:main.c        ****         }
 450:main.c        ****         //SW2 HANDLER
 451:main.c        ****         if(SW2_Read() && countTimesw2==0){
 1482              		.loc 1 451 0
 1483 0146 FFF7FEFF 		bl	SW2_Read
 1484              	.LVL109:
 1485 014a 28B1     		cbz	r0, .L112
 1486              		.loc 1 451 0 is_stmt 0 discriminator 1
 1487 014c 3B4B     		ldr	r3, .L121+36
 1488 014e DB68     		ldr	r3, [r3, #12]
 1489 0150 13B9     		cbnz	r3, .L112
 452:main.c        ****             interrupt_StartEx(SW2_Handler);
 1490              		.loc 1 452 0 is_stmt 1
 1491 0152 4248     		ldr	r0, .L121+68
 1492 0154 FFF7FEFF 		bl	interrupt_StartEx
 1493              	.LVL110:
 1494              	.L112:
 453:main.c        ****         }
 454:main.c        ****         if(countTimesw2>=5000){
 1495              		.loc 1 454 0
 1496 0158 384B     		ldr	r3, .L121+36
 1497 015a DA68     		ldr	r2, [r3, #12]
 1498 015c 41F28733 		movw	r3, #4999
ARM GAS  C:\Users\karam\AppData\Local\Temp\cclRBQQI.s 			page 39


 1499 0160 9A42     		cmp	r2, r3
 1500 0162 08DD     		ble	.L113
 455:main.c        ****             CyDelay(1); //prevent the bug of fast clicking
 1501              		.loc 1 455 0
 1502 0164 0120     		movs	r0, #1
 1503 0166 FFF7FEFF 		bl	CyDelay
 1504              	.LVL111:
 456:main.c        ****             if(!SW2_Read()){
 1505              		.loc 1 456 0
 1506 016a FFF7FEFF 		bl	SW2_Read
 1507              	.LVL112:
 1508 016e 10B9     		cbnz	r0, .L113
 457:main.c        ****                 countTimesw2=0;
 1509              		.loc 1 457 0
 1510 0170 0022     		movs	r2, #0
 1511 0172 324B     		ldr	r3, .L121+36
 1512 0174 DA60     		str	r2, [r3, #12]
 1513              	.L113:
 458:main.c        ****             }
 459:main.c        ****         }
 460:main.c        ****         //SW3 HANDLER
 461:main.c        ****         if(SW3_Read() && countTimesw3==0){
 1514              		.loc 1 461 0
 1515 0176 FFF7FEFF 		bl	SW3_Read
 1516              	.LVL113:
 1517 017a 28B1     		cbz	r0, .L114
 1518              		.loc 1 461 0 is_stmt 0 discriminator 1
 1519 017c 2F4B     		ldr	r3, .L121+36
 1520 017e 1B69     		ldr	r3, [r3, #16]
 1521 0180 13B9     		cbnz	r3, .L114
 462:main.c        ****             interrupt_StartEx(SW3_Handler);
 1522              		.loc 1 462 0 is_stmt 1
 1523 0182 3748     		ldr	r0, .L121+72
 1524 0184 FFF7FEFF 		bl	interrupt_StartEx
 1525              	.LVL114:
 1526              	.L114:
 463:main.c        ****         }
 464:main.c        ****         if(countTimesw3>=15000){
 1527              		.loc 1 464 0
 1528 0188 2C4B     		ldr	r3, .L121+36
 1529 018a 1A69     		ldr	r2, [r3, #16]
 1530 018c 43F69723 		movw	r3, #14999
 1531 0190 9A42     		cmp	r2, r3
 1532 0192 08DD     		ble	.L115
 465:main.c        ****             CyDelay(1); //prevent the bug of fast clicking
 1533              		.loc 1 465 0
 1534 0194 0120     		movs	r0, #1
 1535 0196 FFF7FEFF 		bl	CyDelay
 1536              	.LVL115:
 466:main.c        ****             if(!SW3_Read()){
 1537              		.loc 1 466 0
 1538 019a FFF7FEFF 		bl	SW3_Read
 1539              	.LVL116:
 1540 019e 10B9     		cbnz	r0, .L115
 467:main.c        ****                 countTimesw3=0;
 1541              		.loc 1 467 0
 1542 01a0 0022     		movs	r2, #0
ARM GAS  C:\Users\karam\AppData\Local\Temp\cclRBQQI.s 			page 40


 1543 01a2 264B     		ldr	r3, .L121+36
 1544 01a4 1A61     		str	r2, [r3, #16]
 1545              	.L115:
 468:main.c        ****             }
 469:main.c        ****         }
 470:main.c        ****         //SW4
 471:main.c        ****         if(SW4_Read()){
 1546              		.loc 1 471 0
 1547 01a6 FFF7FEFF 		bl	SW4_Read
 1548              	.LVL117:
 1549 01aa 40B1     		cbz	r0, .L116
 472:main.c        ****             mode=!mode;
 1550              		.loc 1 472 0
 1551 01ac 2D4A     		ldr	r2, .L121+76
 1552 01ae 1378     		ldrb	r3, [r2]	@ zero_extendqisi2
 1553 01b0 83F00103 		eor	r3, r3, #1
 1554 01b4 1370     		strb	r3, [r2]
 1555              	.L117:
 473:main.c        ****             for(;SW4_Read();){}
 1556              		.loc 1 473 0 discriminator 1
 1557 01b6 FFF7FEFF 		bl	SW4_Read
 1558              	.LVL118:
 1559 01ba 0028     		cmp	r0, #0
 1560 01bc FBD1     		bne	.L117
 1561              	.L116:
 474:main.c        ****         }
 475:main.c        ****         AMux_1_FastSelect(1);
 1562              		.loc 1 475 0
 1563 01be 0120     		movs	r0, #1
 1564 01c0 FFF7FEFF 		bl	AMux_1_FastSelect
 1565              	.LVL119:
 476:main.c        ****         float val= (ADC_CountsTo_mVolts(ADC_Read32())/5.106)/10+26;
 1566              		.loc 1 476 0
 1567 01c4 FFF7FEFF 		bl	ADC_Read32
 1568              	.LVL120:
 1569 01c8 FFF7FEFF 		bl	ADC_CountsTo_mVolts
 1570              	.LVL121:
 1571 01cc FFF7FEFF 		bl	__aeabi_i2d
 1572              	.LVL122:
 1573 01d0 13A3     		adr	r3, .L121+8
 1574 01d2 D3E90023 		ldrd	r2, [r3]
 1575 01d6 FFF7FEFF 		bl	__aeabi_ddiv
 1576              	.LVL123:
 1577 01da 0022     		movs	r2, #0
 1578 01dc 224B     		ldr	r3, .L121+80
 1579 01de FFF7FEFF 		bl	__aeabi_ddiv
 1580              	.LVL124:
 1581 01e2 0022     		movs	r2, #0
 1582 01e4 214B     		ldr	r3, .L121+84
 1583 01e6 FFF7FEFF 		bl	__aeabi_dadd
 1584              	.LVL125:
 1585 01ea FFF7FEFF 		bl	__aeabi_d2f
 1586              	.LVL126:
 477:main.c        ****         if(light){
 1587              		.loc 1 477 0
 1588 01ee 194B     		ldr	r3, .L121+60
 1589 01f0 1B78     		ldrb	r3, [r3]	@ zero_extendqisi2
ARM GAS  C:\Users\karam\AppData\Local\Temp\cclRBQQI.s 			page 41


 1590 01f2 002B     		cmp	r3, #0
 1591 01f4 3FF440AF 		beq	.L99
 478:main.c        ****             if(mode){
 1592              		.loc 1 478 0
 1593 01f8 1A4B     		ldr	r3, .L121+76
 1594 01fa 1B78     		ldrb	r3, [r3]	@ zero_extendqisi2
 1595 01fc 2BB1     		cbz	r3, .L119
 479:main.c        ****                 PWM_1_WriteCompare2(val);
 1596              		.loc 1 479 0
 1597 01fe FFF7FEFF 		bl	__aeabi_f2uiz
 1598              	.LVL127:
 1599 0202 80B2     		uxth	r0, r0
 1600 0204 FFF7FEFF 		bl	PWM_1_WriteCompare2
 1601              	.LVL128:
 1602 0208 36E7     		b	.L99
 1603              	.LVL129:
 1604              	.L119:
 480:main.c        ****             }
 481:main.c        ****             else{
 482:main.c        ****                 PWM_1_WriteCompare1(val);
 1605              		.loc 1 482 0
 1606 020a FFF7FEFF 		bl	__aeabi_f2uiz
 1607              	.LVL130:
 1608 020e 80B2     		uxth	r0, r0
 1609 0210 FFF7FEFF 		bl	PWM_1_WriteCompare1
 1610              	.LVL131:
 1611 0214 30E7     		b	.L99
 1612              	.L122:
 1613 0216 00BF     		.align	3
 1614              	.L121:
 1615 0218 F1D4C853 		.word	1405670641
 1616 021c FB210940 		.word	1074340347
 1617 0220 06819543 		.word	1133871366
 1618 0224 8B6C1440 		.word	1075080331
 1619 0228 00000000 		.word	uart_rx_Handler
 1620 022c 00004940 		.word	1078525952
 1621 0230 0000F03F 		.word	1072693248
 1622 0234 00000000 		.word	vec
 1623 0238 0C000000 		.word	.LC1
 1624 023c 00000000 		.word	.LANCHOR0
 1625 0240 00000000 		.word	formmot
 1626 0244 00000000 		.word	mot
 1627 0248 00000000 		.word	MORSE
 1628 024c 14000000 		.word	.LC2
 1629 0250 1C000000 		.word	.LC3
 1630 0254 00000000 		.word	light
 1631 0258 00000000 		.word	SW1_Handler
 1632 025c 00000000 		.word	SW2_Handler
 1633 0260 00000000 		.word	SW3_Handler
 1634 0264 00000000 		.word	mode
 1635 0268 00002440 		.word	1076101120
 1636 026c 00003A40 		.word	1077542912
 1637              	.LBE4:
 1638              		.cfi_endproc
 1639              	.LFE73:
 1640              		.size	main, .-main
 1641              		.global	semaphore_alphabet
ARM GAS  C:\Users\karam\AppData\Local\Temp\cclRBQQI.s 			page 42


 1642              		.comm	rxData_char,1,1
 1643              		.comm	rxData,1,1
 1644              		.global	morsetottimespace
 1645              		.global	k
 1646              		.global	morseint
 1647              		.global	morsecode
 1648              		.comm	formmot,8,4
 1649              		.comm	mot,4,4
 1650              		.global	flag
 1651              		.global	rxend
 1652              		.global	rxbegin
 1653              		.global	begin
 1654              		.comm	light,1,1
 1655              		.comm	mode,1,1
 1656              		.comm	vec,400,4
 1657              		.global	taah
 1658              		.global	ti
 1659              		.global	countTime
 1660              		.global	countTimesw3
 1661              		.global	countTimesw2
 1662              		.global	count
 1663              		.data
 1664              		.align	3
 1665              		.set	.LANCHOR1,. + 0
 1666              		.type	ti, %object
 1667              		.size	ti, 4
 1668              	ti:
 1669 0000 10270000 		.word	10000
 1670              		.type	taah, %object
 1671              		.size	taah, 4
 1672              	taah:
 1673 0004 30750000 		.word	30000
 1674              		.type	begin, %object
 1675              		.size	begin, 1
 1676              	begin:
 1677 0008 01       		.byte	1
 1678 0009 00000000 		.space	7
 1678      000000
 1679              		.type	semaphore_alphabet, %object
 1680              		.size	semaphore_alphabet, 624
 1681              	semaphore_alphabet:
 1682 0010 61       		.byte	97
 1683 0011 00000000 		.space	7
 1683      000000
 1684 0018 00000000 		.word	0
 1685 001c 00000000 		.word	0
 1686 0020 00000000 		.word	0
 1687 0024 00000000 		.word	0
 1688 0028 62       		.byte	98
 1689 0029 00000000 		.space	7
 1689      000000
 1690 0030 00000000 		.word	0
 1691 0034 00000000 		.word	0
 1692 0038 00000000 		.word	0
 1693 003c 00804640 		.word	1078362112
 1694 0040 63       		.byte	99
 1695 0041 00000000 		.space	7
ARM GAS  C:\Users\karam\AppData\Local\Temp\cclRBQQI.s 			page 43


 1695      000000
 1696 0048 00000000 		.word	0
 1697 004c 00000000 		.word	0
 1698 0050 00000000 		.word	0
 1699 0054 00805640 		.word	1079410688
 1700 0058 64       		.byte	100
 1701 0059 00000000 		.space	7
 1701      000000
 1702 0060 00000000 		.word	0
 1703 0064 00000000 		.word	0
 1704 0068 00000000 		.word	0
 1705 006c 00E06040 		.word	1080090624
 1706 0070 65       		.byte	101
 1707 0071 00000000 		.space	7
 1707      000000
 1708 0078 00000000 		.word	0
 1709 007c 00000000 		.word	0
 1710 0080 00000000 		.word	0
 1711 0084 00806640 		.word	1080459264
 1712 0088 66       		.byte	102
 1713 0089 00000000 		.space	7
 1713      000000
 1714 0090 00000000 		.word	0
 1715 0094 00804640 		.word	1078362112
 1716 0098 00000000 		.word	0
 1717 009c 00000000 		.word	0
 1718 00a0 67       		.byte	103
 1719 00a1 00000000 		.space	7
 1719      000000
 1720 00a8 00000000 		.word	0
 1721 00ac 00804640 		.word	1078362112
 1722 00b0 00000000 		.word	0
 1723 00b4 00804640 		.word	1078362112
 1724 00b8 68       		.byte	104
 1725 00b9 00000000 		.space	7
 1725      000000
 1726 00c0 00000000 		.word	0
 1727 00c4 00804640 		.word	1078362112
 1728 00c8 00000000 		.word	0
 1729 00cc 00805640 		.word	1079410688
 1730 00d0 69       		.byte	105
 1731 00d1 00000000 		.space	7
 1731      000000
 1732 00d8 00000000 		.word	0
 1733 00dc 00804640 		.word	1078362112
 1734 00e0 00000000 		.word	0
 1735 00e4 00E06040 		.word	1080090624
 1736 00e8 6A       		.byte	106
 1737 00e9 00000000 		.space	7
 1737      000000
 1738 00f0 00000000 		.word	0
 1739 00f4 00804640 		.word	1078362112
 1740 00f8 00000000 		.word	0
 1741 00fc 00806640 		.word	1080459264
 1742 0100 6B       		.byte	107
 1743 0101 00000000 		.space	7
 1743      000000
ARM GAS  C:\Users\karam\AppData\Local\Temp\cclRBQQI.s 			page 44


 1744 0108 00000000 		.word	0
 1745 010c 00805640 		.word	1079410688
 1746 0110 00000000 		.word	0
 1747 0114 00000000 		.word	0
 1748 0118 6C       		.byte	108
 1749 0119 00000000 		.space	7
 1749      000000
 1750 0120 00000000 		.word	0
 1751 0124 00805640 		.word	1079410688
 1752 0128 00000000 		.word	0
 1753 012c 00804640 		.word	1078362112
 1754 0130 6D       		.byte	109
 1755 0131 00000000 		.space	7
 1755      000000
 1756 0138 00000000 		.word	0
 1757 013c 00805640 		.word	1079410688
 1758 0140 00000000 		.word	0
 1759 0144 00805640 		.word	1079410688
 1760 0148 6E       		.byte	110
 1761 0149 00000000 		.space	7
 1761      000000
 1762 0150 00000000 		.word	0
 1763 0154 00805640 		.word	1079410688
 1764 0158 00000000 		.word	0
 1765 015c 00E06040 		.word	1080090624
 1766 0160 6F       		.byte	111
 1767 0161 00000000 		.space	7
 1767      000000
 1768 0168 00000000 		.word	0
 1769 016c 00805640 		.word	1079410688
 1770 0170 00000000 		.word	0
 1771 0174 00806640 		.word	1080459264
 1772 0178 70       		.byte	112
 1773 0179 00000000 		.space	7
 1773      000000
 1774 0180 00000000 		.word	0
 1775 0184 00E06040 		.word	1080090624
 1776 0188 00000000 		.word	0
 1777 018c 00000000 		.word	0
 1778 0190 71       		.byte	113
 1779 0191 00000000 		.space	7
 1779      000000
 1780 0198 00000000 		.word	0
 1781 019c 00E06040 		.word	1080090624
 1782 01a0 00000000 		.word	0
 1783 01a4 00804640 		.word	1078362112
 1784 01a8 72       		.byte	114
 1785 01a9 00000000 		.space	7
 1785      000000
 1786 01b0 00000000 		.word	0
 1787 01b4 00E06040 		.word	1080090624
 1788 01b8 00000000 		.word	0
 1789 01bc 00805640 		.word	1079410688
 1790 01c0 73       		.byte	115
 1791 01c1 00000000 		.space	7
 1791      000000
 1792 01c8 00000000 		.word	0
ARM GAS  C:\Users\karam\AppData\Local\Temp\cclRBQQI.s 			page 45


 1793 01cc 00E06040 		.word	1080090624
 1794 01d0 00000000 		.word	0
 1795 01d4 00E06040 		.word	1080090624
 1796 01d8 74       		.byte	116
 1797 01d9 00000000 		.space	7
 1797      000000
 1798 01e0 00000000 		.word	0
 1799 01e4 00E06040 		.word	1080090624
 1800 01e8 00000000 		.word	0
 1801 01ec 00806640 		.word	1080459264
 1802 01f0 75       		.byte	117
 1803 01f1 00000000 		.space	7
 1803      000000
 1804 01f8 00000000 		.word	0
 1805 01fc 00806640 		.word	1080459264
 1806 0200 00000000 		.word	0
 1807 0204 00000000 		.word	0
 1808 0208 76       		.byte	118
 1809 0209 00000000 		.space	7
 1809      000000
 1810 0210 00000000 		.word	0
 1811 0214 00806640 		.word	1080459264
 1812 0218 00000000 		.word	0
 1813 021c 00804640 		.word	1078362112
 1814 0220 77       		.byte	119
 1815 0221 00000000 		.space	7
 1815      000000
 1816 0228 00000000 		.word	0
 1817 022c 00806640 		.word	1080459264
 1818 0230 00000000 		.word	0
 1819 0234 00805640 		.word	1079410688
 1820 0238 78       		.byte	120
 1821 0239 00000000 		.space	7
 1821      000000
 1822 0240 00000000 		.word	0
 1823 0244 00806640 		.word	1080459264
 1824 0248 00000000 		.word	0
 1825 024c 00E06040 		.word	1080090624
 1826 0250 79       		.byte	121
 1827 0251 00000000 		.space	7
 1827      000000
 1828 0258 00000000 		.word	0
 1829 025c 00806640 		.word	1080459264
 1830 0260 00000000 		.word	0
 1831 0264 00806640 		.word	1080459264
 1832 0268 7A       		.byte	122
 1833 0269 00000000 		.space	7
 1833      000000
 1834 0270 00000000 		.word	0
 1835 0274 00C06340 		.word	1080279040
 1836 0278 00000000 		.word	0
 1837 027c 00C06340 		.word	1080279040
 1838              		.section	.rodata.str1.4,"aMS",%progbits,1
 1839              		.align	2
 1840              	.LC0:
 1841 0000 20554152 		.ascii	" UART err\000"
 1841      54206572 
ARM GAS  C:\Users\karam\AppData\Local\Temp\cclRBQQI.s 			page 46


 1841      7200
 1842 000a 0000     		.space	2
 1843              	.LC1:
 1844 000c 48656C6C 		.ascii	"Hello\012\000"
 1844      6F0A00
 1845 0013 00       		.space	1
 1846              	.LC2:
 1847 0014 616C6578 		.ascii	"alexis\000"
 1847      697300
 1848 001b 00       		.space	1
 1849              	.LC3:
 1850 001c 61727468 		.ascii	"arthur\000"
 1850      757200
 1851              		.bss
 1852              		.align	2
 1853              		.set	.LANCHOR0,. + 0
 1854              		.type	k, %object
 1855              		.size	k, 4
 1856              	k:
 1857 0000 00000000 		.space	4
 1858              		.type	rxbegin, %object
 1859              		.size	rxbegin, 1
 1860              	rxbegin:
 1861 0004 00       		.space	1
 1862 0005 000000   		.space	3
 1863              		.type	count, %object
 1864              		.size	count, 4
 1865              	count:
 1866 0008 00000000 		.space	4
 1867              		.type	countTimesw2, %object
 1868              		.size	countTimesw2, 4
 1869              	countTimesw2:
 1870 000c 00000000 		.space	4
 1871              		.type	countTimesw3, %object
 1872              		.size	countTimesw3, 4
 1873              	countTimesw3:
 1874 0010 00000000 		.space	4
 1875              		.type	morsecode, %object
 1876              		.size	morsecode, 16
 1877              	morsecode:
 1878 0014 00000000 		.space	16
 1878      00000000 
 1878      00000000 
 1878      00000000 
 1879              		.type	morsetottimespace, %object
 1880              		.size	morsetottimespace, 4
 1881              	morsetottimespace:
 1882 0024 00000000 		.space	4
 1883              		.type	morseint, %object
 1884              		.size	morseint, 4
 1885              	morseint:
 1886 0028 00000000 		.space	4
 1887              		.type	countTime, %object
 1888              		.size	countTime, 4
 1889              	countTime:
 1890 002c 00000000 		.space	4
 1891              		.type	rxend, %object
ARM GAS  C:\Users\karam\AppData\Local\Temp\cclRBQQI.s 			page 47


 1892              		.size	rxend, 1
 1893              	rxend:
 1894 0030 00       		.space	1
 1895              		.type	flag, %object
 1896              		.size	flag, 1
 1897              	flag:
 1898 0031 00       		.space	1
 1899              		.text
 1900              	.Letext0:
 1901              		.file 2 "c:\\program files (x86)\\cypress\\psoc creator\\4.3\\psoc creator\\import\\gnu\\arm\\5.4.
 1902              		.file 3 "c:\\program files (x86)\\cypress\\psoc creator\\4.3\\psoc creator\\import\\gnu\\arm\\5.4.
 1903              		.file 4 "Generated_Source\\PSoC5/cytypes.h"
 1904              		.file 5 "Generated_Source\\PSoC5/core_cm3.h"
 1905              		.file 6 "Generated_Source\\PSoC5/UART.h"
 1906              		.file 7 "Generated_Source\\PSoC5/LCD.h"
 1907              		.file 8 "Generated_Source\\PSoC5/Pin_1.h"
 1908              		.file 9 "Generated_Source\\PSoC5/Pin_2.h"
 1909              		.file 10 "Generated_Source\\PSoC5/Pin_3.h"
 1910              		.file 11 "Generated_Source\\PSoC5/Pin_4.h"
 1911              		.file 12 "Generated_Source\\PSoC5/Timer.h"
 1912              		.file 13 "Generated_Source\\PSoC5/VDAC8_1.h"
 1913              		.file 14 "Generated_Source\\PSoC5/SW1.h"
 1914              		.file 15 "Generated_Source\\PSoC5/interrupt.h"
 1915              		.file 16 "Generated_Source\\PSoC5/PWM_1.h"
 1916              		.file 17 "c:\\program files (x86)\\cypress\\psoc creator\\4.3\\psoc creator\\import\\gnu\\arm\\5.4
 1917              		.file 18 "keypad.h"
 1918              		.file 19 "Generated_Source\\PSoC5/CyLib.h"
 1919              		.file 20 "Generated_Source\\PSoC5/AMux_1.h"
 1920              		.file 21 "Generated_Source\\PSoC5/ADC.h"
 1921              		.file 22 "Generated_Source\\PSoC5/SW2.h"
 1922              		.file 23 "Generated_Source\\PSoC5/SW3.h"
 1923              		.file 24 "Generated_Source\\PSoC5/SW4.h"
 1924              		.file 25 "Generated_Source\\PSoC5/isr.h"
 1925              		.file 26 "c:\\program files (x86)\\cypress\\psoc creator\\4.3\\psoc creator\\import\\gnu\\arm\\5.4